                ; ####################################################################################################
                ; #   PROJECT  :  APPLE ][ DOS 3.3 C SOURCE CODE LISTING -- (C) APPLE COMPUTER INC. JULY 1983
                ; #   FILE NAME:  DOS33C
                ; ####################################################################################################
                
                ;;;                SBTL         "DOS3.3C w/ APPEND fix, U/L case"
                ;;;                LST          ON,VSYM
                ;;;                MSB          OFF
                ORIGIN          EQU          $1B00
                DIAGMODE        EQU          0
                DOS33B          EQU          1
                ULC             EQU          0                         ;1=ASM with lower case patch
                ; ####################################################################################################
                ; #   PROJECT  :  APPLE ][ DOS 3.3 C SOURCE CODE LISTING -- (C) APPLE COMPUTER INC. JULY 1983
                ; #   FILE NAME:  RELOCTR
                ; ####################################################################################################
                
                ;;;                PAGE
                *****************************************************
                *                                                   *
                * (C) COPYRIGHT 1978,1980,1982 APPLE COMPUTER, INC. *
                *                                                   *
                *****************************************************
                ;;;                SKP          2
                *********************************
                *                               *
                *  ADAPTED FOR MACRO EDASM BY   *
                *        JOHN ARKLEY            *
                *         DEC  1980             *
                *                               *
                *********************************
                ;;;                SKP          2
                *********************************
                *                               *
                *  DOS 3.3 REVISION B PATCHES   *
                *   INSTALLED BY MARK HOUDE     *
                *          JUL 1982             *
                *                               *
                *********************************
                ;;;                SKP          2
                *********************************
                *                               *
                *  DOS 3.3 REV B PATCHES VER 2  *
                *   INSTALLED BY FERN BACHMAN   *
                *          SEP 1982             *
                *                               *
                *********************************
                ;;;                SKP          2
                *********************************
                *                               *
                *    DOS33C PATCHES (APPEND &   *
                *     UPPER/LOWER CASE CHECK)   *
                *                               *
                *            BY                 *
                *        GUIL  BANKS            *
                *         JULY 1983             *
                *                               *
                *********************************
                ;
                ;EQUATES REQD TO FIND THINGS IN APPLE II
                ;
                SETVID          EQU          $FE93
                SETKBD          EQU          $FE89
                PROMPT          EQU          $33                       ; PROMPT CHAR
                OUTSW           EQU          $36                       ; OUTPUT VECTOR SWITCH
                INSW            EQU          $38                       ; INPUT VECTOR SWITCH
                ZPGWRK          EQU          $40                       ; ZERO PAGE WORK CELL
                CNUM            EQU          $44                       ; CONVERTED NUMERIC
                LBUFF           EQU          $200                      ; LINE BUFFER
                MULT            EQU          $FB63                     ; MULT ROUTINE
                INPRT           EQU          $FE8B                     ; SET IN PORT
                OUTPRT          EQU          $FE95                     ; SET OUT PORT
                IBCHN           EQU          $E836                     ; BASIC RUN
                IBLMEM          EQU          $4A                       ; BASIC LOW MEM
                IBHMEM          EQU          $4C                       ; INTEGER BASIC HIMEM
                IBSOP           EQU          $CA                       ; INTEGER BASIC START OF CGM
                IBBRK           EQU          $E3E3                     ; BASIC BREAK
                IBGO            EQU          $E000                     ; BASIC ENTRY POINT
                IBCONT          EQU          $E003                     ; BASIC CONTINUE ENTRY POINT
                IBSOV           EQU          $CC                       ; BASIC START OF VARIABLES
                ASSOP           EQU          $67                       ; AS START OF PROGRAM
                ASEOP           EQU          $AF                       ; AS END OF PROGRAM
                ASEOP2          EQU          $69                       ; AS END-OF PGM 2
                ASHM1           EQU          $73                       ; AS HIGH MEM 1
                ASHM2           EQU          $6F                       ; AS HIGH MEM 2
                ASRNX           EQU          $D6                       ;AS RUN-ONLY FLAG
                ASONERR         EQU          $D8                       ;AS ON-ERR GOTO FLAG
                ASLMEM          EQU          ASSOP                     ; AS LOW MEM
                ASBRK1          EQU          $D865                     ; AS ROM BREAK
                ASBRK2          EQU          $1067                     ; AS RAM BREAK
                ASCNTU1         EQU          $D43C
                ASCNTU2         EQU          $C3C
                ASRSEQ1         EQU          $D4F2
                ASRSEQ2         EQU          $CF2
                AITSTL          EQU          $E000                     ; AS 1 IB TEST LOC
                ATSTV           EQU          $4C                       ; AS TEST VALUE
                ITSTV           EQU          $20                       ; IB TEST VALUE
                BOOTSL          EQU          $2E                       ; BOOT FROM SLOT
                ZPGFCB          EQU          $42                       ; ZERO PAGE WORK CELL
                MONRST          EQU          $FF65                     ;MONITOR RESET ENTRY
                MONBRK          EQU          $FA59                     ;MONITOR BREAK FUNCTION
                IORTS           EQU          $FF58                     ;KNOWN RTS IN MONITOR ROM
                HOME            EQU          $FC58
                PRINT           EQU          $FDED
                GETKEY          EQU          $FD0C
                INSDS2          EQU          $F88E
                LENGTH          EQU          $2F
                ZRSET           EQU          $3F2                      ;NEW MONITOR ROM RESET VECTOR
                PWCNST          EQU          $3F4                      ;NEW MONITOR ROM POWER UP CONSTANT
                ;;;                REP          40
                *
                *
                                ORG          ORIGIN
                *
                *
                ;;;                REP          40
                ;;;                PAGE
1b00 4c 84 1d   BEGIN           JMP          DBINIT
                ;
                DOSREL          EQU          *
                ;
                ;GET RELOCATION PARMS
                ;
                DR0             EQU          *
                LOC1            EQU          $26
1b03 a9 bf                      LDA          #$BF                      ; START AT BF00
1b05 85 41                      STA          ZPGWRK+1                  ; TO LOOK FOR
1b07 a2 00                      LDX          #0                        ; HIGH RAM
1b09 86 40                      STX          ZPGWRK
1b0b a0 00      DR0A            LDY          #0                        ; APPLE TEST
                DR1B            EQU          *
1b0d a1 40                      LDA          (ZPGWRK,X)
1b0f 85 26                      STA          LOC1
1b11 98         DR1             TYA
1b12 45 26                      EOR          LOC1
1b14 85 26                      STA          LOC1
1b16 98                         TYA
1b17 41 40                      EOR          (ZPGWRK,X)
1b19 81 40                      STA          (ZPGWRK,X)
1b1b c5 26                      CMP          LOC1
1b1d d0 05                      BNE          DR1A
1b1f c8                         INY
1b20 d0 ef                      BNE          DR1
1b22 f0 04                      BEQ          DR2                       ; BR IF TOOK
                DR1A            EQU          *
1b24 c6 41                      DEC          ZPGWRK+1                  ; NOT RAM
1b26 d0 e3                      BNE          DR0A                      ; TRY NEXT PAGE
                ;
                DR2             EQU          *
                ;
1b28 a5 41                      LDA          ZPGWRK+1                  ;BEGIN PATCH TO INSURE   *****
1b2a 29 df                      AND          #$DF                      ; PROPER HIGH MEMORY CHECK.
1b2c 85 43                      STA          ZPGFCB+1                  ;(DOS MASTER 3.1 CONTAINS
1b2e 86 42                      STX          ZPGFCB                    ; THIS ROUTINE STARTING AT LOCATION
1b30 a1 42                      LDA          (ZPGFCB,X)                ; $3540)
1b32 48                         PHA
1b33 85 26                      STA          LOC1                      ;SAVE TEST VALUE
1b35 98         DR2A            TYA                                    ;(FIRST TIME Y=0)
1b36 45 26                      EOR          LOC1                      ;TEST EACH (ALLEDGED) MEMORY BYTE
1b38 85 26                      STA          LOC1                      ; 256 TIMES TO DETERMINE IF
1b3a 98                         TYA                                    ; IT IS REALLY GOOD MEMORY AND
1b3b 41 40                      EOR          (ZPGWRK,X)                ; MIRRORED 8K LOWER IN RAM.
1b3d 81 42                      STA          (ZPGFCB,X)
1b3f c5 26                      CMP          LOC1                      ;DID IT PASS THIS TIME?
1b41 d0 09                      BNE          DR2B                      ; BYTE NOT MIRRORED, THEN GOOD MEMORY
1b43 c8                         INY                                    ;MAYBE IT WAS COINCIDENCE
1b44 d0 ef                      BNE          DR2A                      ;BRANCH UNLESS IT'S MATCHED 256 TIMES
1b46 a4 43                      LDY          ZPGFCB+1                  ;HIMEM IS 8K LOWER THAN WAS
1b48 68                         PLA                                    ;ORIGINALLY THOUGHT!
1b49 4c 51 1b                   JMP          DR2C
1b4c 68         DR2B            PLA                                    ;ORIGINAL HIMEM PROVED GOOD
1b4d 81 42                      STA          (ZPGFCB,X)                ;RESTORE BYTE ORIGINALLY MESSED WITH.
1b4f a4 41                      LDY          ZPGWRK+1                  ;END OF PATCH   *****
1b51 c8         DR2C            INY                                    ; NEW END OF DOS
1b52 8c 7d 1c                   STY          NEPAGE
1b55 38                         SEC
1b56 98                         TYA
1b57 ed 7e 1c                   SBC          DOSLNG                    ; MINUS DOS LENGTH
1b5a 8d 7c 1c                   STA          NSPAGE                    ; IS NEW START OF DOS
1b5d 38                         SEC
1b5e ed 7a 1c                   SBC          RSPAGE                    ; MINUS OLD DOS START
1b61 f0 9d                      BEQ          BEGIN                     ; (BREIF NO DELTA)
1b63 8d 7f 1c                   STA          DELTA                     ; IS DELTA
1b66 ad 7a 1c                   LDA          RSPAGE                    ; RESET START PAGE TO NORMAL
1b69 8d 0d 1d                   STA          ASTART+1
                ;
1b6c a9 1d                      LDA          #<DBINIT                  ; RESET PI RTN TO NORMAL
1b6e 8d 49 37                   STA          DI3+2
1b71 a9 84                      LDA          #>DBINIT
1b73 8d 48 37                   STA          DI3+1
                ;
                ;RELOCATE ADR TABLES
                ;
1b76 a2 00                      LDX          #0
1b78 86 40                      STX          ZPGWRK
                DR3             EQU          *
1b7a bd 29 1c                   LDA          ADRTAB+1,X
1b7d a8                         TAY
1b7e bd 2a 1c                   LDA          ADRTAB+2,X
1b81 85 41                      STA          ZPGWRK+1
1b83 4c 93 1b                   JMP          DR5
                ;
                DR4             EQU          *
1b86 18                         CLC
1b87 b1 40                      LDA          (ZPGWRK),Y
1b89 6d 7f 1c                   ADC          DELTA
1b8c 91 40                      STA          (ZPGWRK),Y
1b8e c8                         INY
1b8f d0 02                      BNE          DR5
1b91 e6 41                      INC          ZPGWRK+1
1b93 c8         DR5             INY
1b94 d0 02                      BNE          DR6
1b96 e6 41                      INC          ZPGWRK+1
                ;
                DR6             EQU          *
1b98 a5 41                      LDA          ZPGWRK+1
1b9a dd 2c 1c                   CMP          ADRTAB+4,X
1b9d 90 e7                      BCC          DR4
1b9f 98                         TYA
1ba0 dd 2b 1c                   CMP          ADRTAB+3,X
1ba3 90 e1                      BCC          DR4
                ;
1ba5 8a                         TXA
1ba6 18                         CLC
1ba7 69 04                      ADC          #4
1ba9 aa                         TAX
1baa ec 28 1c                   CPX          ADRTAB
1bad 90 cb                      BCC          DR3
                ;;;                PAGE
                ;
                ;RELOCATE CODE
                ;
1baf a2 00                      LDX          #0
1bb1 8e 9c 33   DR7             STX          TEMP1
                ;
1bb4 bd 5a 1c                   LDA          CDETAB+1,X                ; GET A START OF CODE ADR
1bb7 85 40                      STA          ZPGWRK                    ; PUT IN ZPG
1bb9 bd 5b 1c                   LDA          CDETAB+2,X
1bbc 85 41                      STA          ZPGWRK+1
                ;
1bbe a2 00      DR8             LDX          #0
1bc0 a1 40                      LDA          (ZPGWRK,X)                ; GET OP CODE
1bc2 20 8e f8                   JSR          INSDS2                    ; GO FIND OUT HOW LONG
                ;
1bc5 a4 2f                      LDY          LENGTH                    ; GET HOW LONG
1bc7 c0 02                      CPY          #2                        ; IF IT AIN'T
1bc9 d0 11                      BNE          DR9                       ; 3 THEN DON'T RELOC
1bcb b1 40                      LDA          (ZPGWRK),Y                ; GET PAGE FROM INST
1bcd cd 7a 1c                   CMP          RSPAGE                    ; IF PAGE < REL START
1bd0 90 0a                      BCC          DR9                       ; THEN IGNOR
1bd2 cd 7b 1c                   CMP          REPAGE                    ; IF PAGE >= REL END
1bd5 b0 05                      BCS          DR9                       ; THEN IGNORE
1bd7 6d 7f 1c                   ADC          DELTA                     ; ELSE ADD DELTA
1bda 91 40                      STA          (ZPGWRK),Y                ; TO RELOCATE
                ;
1bdc 38         DR9             SEC
1bdd a5 2f                      LDA          LENGTH                    ; ADD LENGTH
1bdf 65 40                      ADC          ZPGWRK                    ; TO PC
1be1 85 40                      STA          ZPGWRK
1be3 a9 00                      LDA          #0
1be5 65 41                      ADC          ZPGWRK+1
1be7 85 41                      STA          ZPGWRK+1
                ;
1be9 ae 9c 33                   LDX          TEMP1                     ; CHECK FOR END
1bec dd 5d 1c                   CMP          CDETAB+4,X                ; OF CODE SEGMENT
1bef 90 cd                      BCC          DR8                       ; BR NOT END
1bf1 a5 40                      LDA          ZPGWRK
1bf3 dd 5c 1c                   CMP          CDETAB+3,X
1bf6 90 c6                      BCC          DR8                       ; BR NOT END
                ;
1bf8 8a                         TXA
1bf9 18                         CLC
1bfa 69 04                      ADC          #4                        ; INCREMENT TABLE INDEX
1bfc aa                         TAX
1bfd ec 59 1c                   CPX          CDETAB                    ; DONE
1c00 90 af                      BCC          DR7                       ; BR IF NOT
                ;
                ;;;                PAGE
                ;
                ;MOVE TO RELOCATED CODE
                ;
1c02 a9 3f                      LDA          #<(ENDOFDOS-$80)
1c04 85 41                      STA          ZPGWRK+1                  ; ZPGWRK=FROM
1c06 ac 7d 1c                   LDY          NEPAGE
1c09 88                         DEY
1c0a 84 43                      STY          ZPGFCB+1                  ; ZPGFCB = TOO
1c0c a9 00                      LDA          #0
1c0e 85 40                      STA          ZPGWRK
1c10 85 42                      STA          ZPGFCB
1c12 a8                         TAY
                ;
1c13 b1 40      DR10            LDA          (ZPGWRK),Y                ; BYTE FROM
1c15 91 42                      STA          (ZPGFCB),Y                ; BYTE TO
1c17 c8                         INY                                    ; INCREMENT
1c18 d0 f9                      BNE          DR10                      ; BR NOT FULL PAGE
1c1a ce 80 1c                   DEC          DPGCNT                    ; DECREMENT PAGE CNT
1c1d f0 06                      BEQ          DR11                      ; BR IF DONE
1c1f c6 41                      DEC          ZPGWRK+1                  ; INC FROM PAGE
1c21 c6 43                      DEC          ZPGFCB+1                  ; INC TOO PAGE
1c23 d0 ee                      BNE          DR10                      ; MOVE PAGE
                ;
1c25 4c 54 1e   DR11            JMP          DBVECT+3                  ; DONE
                ;;;                PAGE
1c28 24         ADRTAB          DFB          9*4
1c29 00 1d                      DW           SAT1
1c2b 56 1d                      DW           EAT1
1c2d 58 1d                      DW           RUN
1c2f 5a 1d                      DW           RUN+2
1c31 64 1d                      DW           IBVT+2
1c33 66 1d                      DW           IBVT+4
1c35 6c 1d                      DW           AS1VT
1c37 70 1d                      DW           AS1VT+4
1c39 78 1d                      DW           AS2VT
1c3b 7c 1d                      DW           AS2VT+4
1c3d 7e 1d                      DW           AS2VT+6
1c3f 80 1d                      DW           AS2VT+8
1c41 c1 2a                      DW           SAT2
1c43 fd 2a                      DW           EAT2
1c45 e4 37                      DW           BAIOB
1c47 e8 37                      DW           ADOSLD+2
1c49 ee 37                      DW           IBDCTP
1c4b f0 37                      DW           IBDCTP+2
1c4d 00 00 00                   DFB          0,0,0,0
1c50 00
1c51 00 00 00                   DFB          0,0,0,0
1c54 00
1c55 00 00 00                   DFB          0,0,0,0
1c58 00
                CDETAB          EQU          *
1c59 20                         DFB          8*4
1c5a 84 1d                      DW           SC1
1c5c 84 28                      DW           EC1
1c5e fd 2a                      DW           SC2
1c60 97 33                      DW           EC2
1c62 5d 36                      DW           SC3
1c64 e0 37                      DW           EC3
1c66 56 3c                      DW           SWADR1
1c68 df 3c                      DW           EWADR1
1c6a 00 38                      DW           ASC1
1c6c 11 3a                      DW           AEC1
1c6e 69 3a                      DW           PSC1
1c70 94 3a                      DW           PEC1
1c72 00 3d                      DW           ASC2
1c74 a8 3f                      DW           AEC2
1c76 c8 3f                      DW           SDP1
1c78 ff 3f                      DW           EDP1
1c7a 1d         RSPAGE          DFB          <START
1c7b 40         REPAGE          DFB          <ENDOFDOS
                ;
1c7c 00         NSPAGE          DFB          0
1c7d 00         NEPAGE          DFB          0
                ;
1c7e 23         DOSLNG          DFB          <(ENDOFDOS-START)
                ;
1c7f 00         DELTA           DFB          0
1c80 23         DPGCNT          DFB          <(ENDOFDOS-START)
                ;;;                PAGE
                
                ; ####################################################################################################
                ; #   END OF FILE:  RELOCTR
                ; #   LINES      :  337
                ; #   CHARACTERS :  14207
                ; #   Formatter  :  Assembly Language Reformatter 1.0.2 (07 January 1998)
                ; ####################################################################################################
                ; ####################################################################################################
                ; #   PROJECT  :  APPLE ][ DOS 3.3 C SOURCE CODE LISTING -- (C) APPLE COMPUTER INC. JULY 1983
                ; #   FILE NAME:  DOSINIT
                ; ####################################################################################################
                
                HEREL           EQU          >*
                REMDR           EQU          256-HEREL
                                ORG          *+REMDR
                ;
                ;RELOCATION TABLES
                ;
                START           EQU          *
                SAT1            EQU          *
1d00 d3 1c      FTAB            DW           *-45                      ; START OF FTABS
1d02 81 1e      CINA            DW           CHRIN                     ; CHAR IN ADR
1d04 bd 1e      COUTA           DW           CHROUT                    ; CHAR OUT ADR
1d06 75 2a      FN1ADR          DW           FNAME1
1d08 93 2a      FN2ADR          DW           FNAME2
1d0a 60 2a      SVBLA           DW           SVBL
1d0c 00 1b      ASTART          DW           BEGIN                     ; CHANGED TO START BY RELOCATE
1d0e bb 35      CCBADR          DW           CCB
                ;
                OUTSVT          EQU          *                         ; CHAR OUTPUT STATE VECTOR TABLE
1d10 ea 1e                      DW           COS0-1
1d12 11 1f                      DW           COS1-1
1d14 22 1f                      DW           COS2-1
1d16 2e 1f                      DW           COS3-1
1d18 51 1f                      DW           COS4-1
1d1a 60 1f                      DW           COS5-1
1d1c 70 1f                      DW           COS6-1
                ;COMMAND EXECUTION TABLE
                CMDETB          EQU          *
1d1e 4e 25                      DW           EINIT-1
1d20 12 24                      DW           ELOAD-1
1d22 96 23                      DW           ESAVE-1
1d24 d0 24                      DW           ERUN-1
1d26 ef 24                      DW           ECHAIN-1
1d28 62 22                      DW           EDEL-1
1d2a 70 22                      DW           ELOCK-1
1d2c 74 22                      DW           EUNLK-1
1d2e e9 22                      DW           ECLOSE-1
1d30 1a 25                      DW           EREAD-1
1d32 c5 25                      DW           EEXEC-1
1d34 0f 25                      DW           EWRITE-1
1d36 dc 25                      DW           EPOS-1
1d38 a2 22                      DW           EOPEN-1
1d3a 97 22                      DW           EAPND-1
1d3c 80 22                      DW           EREN-1
1d3e 6d 25                      DW           ECAT-1
1d40 32 22                      DW           EMON-1
1d42 3c 22                      DW           ENOMON-1
1d44 28 22                      DW           EPR-1
1d46 2d 22                      DW           EIN-1
1d48 50 22                      DW           EMAXF-1
1d4a 79 25                      DW           EAS-1
1d4c 9d 25                      DW           EINT-1
1d4e 30 23                      DW           EBSV-1
1d50 5c 23                      DW           EBLD-1
1d52 8d 23                      DW           EBRUN-1
1d54 7c 22                      DW           EVAR-1
                EAT1            EQU          *
                ;;;                PAGE
                ;
                ;NON-RELOCATING ADRS
                ;
                IBASVT          EQU          *
1d56 36 e8      CHAIN           DW           IBCHN
1d58 e5 24      RUN             DW           IBRUN
1d5a e3 e3      BREAK           DW           IBBRK
1d5c 00 e0      GO              DW           IBGO
1d5e 03 e0      CONT            DW           IBCONT                    ; BASIC CONT ENTRY POINT
1d60 00 00      ASEQ            DW           0
1d62 36 e8      IBVT            DW           IBCHN
1d64 e5 24                      DW           IBRUN
1d66 e3 e3                      DW           IBBRK
1d68 00 e0                      DW           IBGO
1d6a 03 e0                      DW           IBCONT
                IBVTL           EQU          *-IBVT
                ;
1d6c fc 24      AS1VT           DW           ASRUN1
1d6e fc 24                      DW           ASRUN1
1d70 65 d8                      DW           ASBRK1
1d72 00 e0                      DW           IBGO
1d74 3c d4                      DW           ASCNTU1
1d76 f2 d4                      DW           ASRSEQ1
                AS1VTL          EQU          *-AS1VT
                ;
1d78 06 25      AS2VT           DW           ASRUN2
1d7a 06 25                      DW           ASRUN2
1d7c 67 10                      DW           ASBRK2
1d7e 84 1d                      DW           DBINIT
1d80 3c 0c                      DW           ASCNTU2
1d82 f2 0c                      DW           ASRSEQ2
                AS2VTL          EQU          *-AS2VT
                ;;;                PAGE
                ;
                ;DOS BASIC INTERPRETER - INITIAL ENTRY
                ;
                SC1             EQU          *
                DBINIT          EQU          *
1d84 ad e9 37                   LDA          IBSLOT                    ; GET BOOT SLOT
1d87 4a                         LSR          A
1d88 4a                         LSR          A
1d89 4a                         LSR          A
1d8a 4a                         LSR          A
1d8b 8d 6a 2a                   STA          CS                        ; SET AS CUURENT SLOT
1d8e ad ea 37                   LDA          IBDRVN                    ; GET BOOT DRIVE NUMBER
1d91 8d 68 2a                   STA          CD                        ; SET AS CURRENT DRIVE
1d94 ad 00 e0                   LDA          AITSTL                    ; GET APPLESOFT/IB TEST
1d97 49 20                      EOR          #ITSTV                    ; IF AS THEN
1d99 d0 11                      BNE          IAS1                      ; GO TO AS INIT
                ;;ELSE INIT FOR IB
1d9b 8d b6 2a                   STA          ASIBSW                    ; SET SW FOR IB
1d9e a2 0a                      LDX          #IBVTL                    ; GET IB VT LENGTH
1da0 bd 61 1d   IIB1            LDA          IBVT-1,X                  ; MOVE IB ADDR
1da3 9d 55 1d                   STA          IBASVT-1,X
1da6 ca                         DEX
1da7 d0 f7                      BNE          IIB1
1da9 4c bc 1d                   JMP          INITAA
                ;
                IAS1            EQU          *
1dac a9 40                      LDA          #$40                      ; INDICATE ROM APPLESOFT
1dae 8d b6 2a                   STA          ASIBSW
1db1 a2 0c                      LDX          #AS1VTL
1db3 bd 6b 1d   IAS1A           LDA          AS1VT-1,X                 ; MOVE ROM AS ADRS
1db6 9d 55 1d                   STA          IBASVT-1,X
1db9 ca                         DEX
1dba d0 f7                      BNE          IAS1A
                ;
                INITAA          EQU          *
1dbc 38                         SEC                                    ; INDICATE INIT
1dbd b0 12                      BCS          INITA
1dbf ad b6 2a   DBRST           LDA          ASIBSW                    ;GET APPLESOFT/INITGER BASIC FLAG.
1dc2 d0 04                      BNE          INITA1                    ;BRANCH IF NOT INTIGER BASIC
1dc4 a9 20                      LDA          #ITSTV                    ;GET INTIGER TEST VALUE AND GO SET
1dc6 d0 05                      BNE          INITA2                    ; ROM SWITCH TO 'IB'. (BRANCH ALWAYS)
1dc8 0a         INITA1          ASL          A                         ;TEST FOR ROM APPLESOFT
1dc9 10 05                      BPL          INITA3                    ;BRANCH IF RAM VERSION
1dcb a9 4c                      LDA          #ATSTV                    ;GET APPLESOFT TEST VALUE AND GO SET
1dcd 20 b2 25   INITA2          JSR          SWTST                     ;GO SELECT PROPER ROM BASIC.
1dd0 18         INITA3          CLC                                    ; INDICATE RESET
                ;
                INITA           EQU          *
1dd1 08                         PHP                                    ; SAVE INIT/RESET
1dd2 20 51 28                   JSR          MVCSW                     ; GO MOVE CHAR SWITCH
1dd5 a9 00                      LDA          #0                        ; CLR MONITOR MODES
1dd7 8d 5e 2a                   STA          MONMOD
                ;
1dda 8d 52 2a                   STA          OSTATE                    ; CLEAR OUTSTATE AND EXECUTE STATE
1ddd 28                         PLP                                    ; GET INIT/RESET
1dde 6a                         ROR          A                         ; SHIFT CARRY TO MSB
1ddf 8d 51 2a                   STA          ISTATE                    ; SAVE INSTATE
1de2 30 03                      BMI          INITB                     ; BR IF INIT
1de4 6c 5e 1d                   JMP          (CONT)                    ; GO TO CONTINUE ENTRY
1de7 6c 5c 1d   INITB           JMP          (GO)                      ; GO TO GO ENTRY
                ;;;                PAGE
                INITC           EQU          *
1dea 0a                         ASL          A                         ; OF ISTATE NOT ON
1deb 10 19                      BPL          INITD                     ; THEN NOT RAM AS
1ded 8d b6 2a                   STA          ASIBSW                    ; SET RAM AS
1df0 a2 0c                      LDX          #AS2VTL
1df2 bd 77 1d   IAS2A           LDA          AS2VT-1,X                 ; MOVE RAM AS ADRS
1df5 9d 55 1d                   STA          IBASVT-1,X
1df8 ca                         DEX
1df9 d0 f7                      BNE          IAS2A
1dfb a2 1d                      LDX          #29
1dfd bd 93 2a   IAS2B           LDA          FNAME2,X
1e00 9d 75 2a                   STA          FNAME1,X
1e03 ca                         DEX
1e04 10 f7                      BPL          IAS2B
                ;
                INITD           EQU          *
1e06 ad b1 2a                   LDA          DFNFTS                    ; GO BUILD FILE TABS
1e09 8d 57 2a                   STA          CNFTBS                    ; AND SET MEM BOUNDS
1e0c 20 d4 27                   JSR          BLDFTB
1e0f ad b3 2a                   LDA          ESTATE                    ; GET EXEC STATE
1e12 f0 09                      BEQ          INITZ                     ; BR IF NOT EXECUTE
1e14 48                         PHA                                    ; SVE CHAR
1e15 20 9d 26                   JSR          MVEFTA                    ; GO MOVE EX FILE TAB ADR TO ZP
1e18 68                         PLA                                    ; GET SAVED CHAR
1e19 a0 00                      LDY          #0
1e1b 91 40                      STA          (ZPGWRK),Y                ;
                INITZ           EQU          *
1e1d 20 5b 27                   JSR          CLRSTS                    ; SET IN AND OUT STATES TO ZERO
1e20 ad 5f 2a                   LDA          CMDNO                     ; IF NOT BOOT (DUPLICATED FROM LINES 4540, 4550)
1e23 d0 20                      BNE          INITF                     ; THEN DONE
1e25 a2 2f                      LDX          #IFBL
1e27 bd 51 1e   INITE           LDA          DBVECT,X                  ; MOVE RESTART VECTORS
1e2a 9d d0 03                   STA          $3D0,X
1e2d ca                         DEX
1e2e 10 f7                      BPL          INITE
1e30 ad 53 1e                   LDA          DBVECT+2                  ;SET RESET VECTORS FOR NEW MONITOR.
1e33 8d f3 03                   STA          ZRSET+1                   ;NOTE: THESE ARE NOT NORMALLY USED AND
1e36 49 a5                      EOR          #$A5                      ; ARE ONLY SET ONCE ON BOOT.
1e38 8d f4 03                   STA          PWCNST                    ;POWER UP CONSTANT=COMPLIMENT OF HI RESET VECTOR.
1e3b ad 52 1e                   LDA          DBVECT+1                  ;SET LOW VECTOR ADDRESS.
1e3e 8d f2 03                   STA          ZRSET                     ;NOW APPLE RESET WILL KEEP DOS IN I/O LOOP.
1e41 a9 06                      LDA          #6                        ;INDICATE RUN
1e43 d0 05                      BNE          INITF1                    ;LOAD AND RUN THE 'HELLO' PROGRAM
                ;
                INITF           EQU          *
1e45 ad 62 2a                   LDA          SVCMD
1e48 f0 06                      BEQ          INITG
1e4a 8d 5f 2a   INITF1          STA          CMDNO
1e4d 4c 80 21                   JMP          CMDGO1
                INITG           EQU          *
1e50 60                         RTS
                ;
                IFB             EQU          *
1e51 4c bf 1d   DBVECT          JMP          DBRST
1e54 4c 84 1d                   JMP          DBINIT
1e57 4c fd 2a                   JMP          USERENT                   ;USER EXTERNAL ENTRY TO FILE MANAGER
1e5a 4c b5 37                   JMP          DISKIO
                CCBLDR          EQU          *
1e5d ad 0f 1d                   LDA          CCBADR+1
1e60 ac 0e 1d                   LDY          CCBADR
1e63 60                         RTS
                IOBLDR          EQU          *
1e64 ad c2 2a                   LDA          AIOB+1
1e67 ac c1 2a                   LDY          AIOB
1e6a 60                         RTS
1e6b 4c 51 28                   JMP          MVCSW
1e6e ea                         NOP
1e6f ea                         NOP
1e70 4c 59 fa                   JMP          MONBRK                    ;SET BREAK VECTOR FOR NEW MONITOR (JMP IS FOR PROP RELOC)
1e73 4c 65 ff                   JMP          MONRST                    ;AFTER RELOC TO $3F2 THIS BECOMES:  DW DBRST,XOR(A5) ADR HI
1e76 4c 58 ff                   JMP          IORTS                     ;SET AS '&' FUNC TO KNOWN RTS
1e79 4c 65 ff                   JMP          MONRST                    ;GOTO MONITOR RESET (CONTROL Y FUNCTION)
1e7c 4c 65 ff                   JMP          MONRST                    ;GOTO MONITOR RESET
1e7f 65 ff                      DW           MONRST                    ;IRQ GOTO MONITOR RESET
                IFBL            EQU          *-IFB-1
                
                ; ####################################################################################################
                ; #   END OF FILE:  DOSINIT
                ; #   LINES      :  226
                ; #   CHARACTERS :  10022
                ; #   Formatter  :  Assembly Language Reformatter 1.0.2 (07 January 1998)
                ; ####################################################################################################
                ; ####################################################################################################
                ; #   PROJECT  :  APPLE ][ DOS 3.3 C SOURCE CODE LISTING -- (C) APPLE COMPUTER INC. JULY 1983
                ; #   FILE NAME:  DOSHOOK
                ; ####################################################################################################
                
                ;;;                PAGE
                ;
                ;CHRIN - CHAR RCVD VIA IN SWITCH
                ;
                CHRIN           EQU          *
1e81 20 d1 1e                   JSR          SVREGS
1e84 ad 51 2a                   LDA          ISTATE                    ; IF NOT DISKIN
1e87 f0 15                      BEQ          CHIN1                     ; THEN BRANCH, ELSE
1e89 48                         PHA                                    ;SAVE ISTATE
1e8a ad 5c 2a                   LDA          SVA
1e8d 91 28                      STA          ($28),Y                   ;REPLACE CURSOR
1e8f 68                         PLA                                    ;GET ISTATE AGAIN
1e90 30 03                      BMI          CHIN0                     ;BRANCH IF NOT 'READ' FROM DISK
1e92 4c 26 26                   JMP          ICFD                      ; AND GET CHAR FROM DISK
1e95 20 ea 1d   CHIN0           JSR          INITC
1e98 a4 24                      LDY          $24                       ;GET CURSOR HORIZ
1e9a a9 60                      LDA          #$60                      ;RESTORE A FLASHING CURSOR
1e9c 91 28                      STA          ($28),Y                   ; TO PROMPT USER
                CHIN1           EQU          *
1e9e ad b3 2a                   LDA          ESTATE
1ea1 f0 03                      BEQ          CHIN2
1ea3 20 82 26                   JSR          NXTEXC                    ;RETURNS TO HERE ONLY WHEN 'EXEC' IS EXHAUSTED
                CHIN2           EQU          *
1ea6 a9 03                      LDA          #3                        ; SET OUT CHAR
1ea8 8d 52 2a                   STA          OSTATE                    ; STATE TO INPUT ECHO
1eab 20 ba 1f                   JSR          LDREGS
1eae 20 ba 1e                   JSR          GETIN
1eb1 8d 5c 2a                   STA          SVA                       ;SAVE CHAR & INDEX
1eb4 8e 5a 2a                   STX          SVX
1eb7 4c b3 1f                   JMP          ORTN
                ;
1eba 6c 38 00   GETIN           JMP          (INSW)
                ;
                ;CHROUT - CHAR RCVD VIA OUTPUT SWITCH
                ;
                CHROUT          EQU          *
1ebd 20 d1 1e                   JSR          SVREGS                    ; SAVE REGS
                ;
1ec0 ad 52 2a                   LDA          OSTATE                    ; GET OUT SPARE
1ec3 0a                         ASL          A
1ec4 aa                         TAX
1ec5 bd 11 1d                   LDA          OUTSVT+1,X                ; GET ROUTINE ADR
1ec8 48                         PHA
1ec9 bd 10 1d                   LDA          OUTSVT,X
1ecc 48                         PHA
1ecd ad 5c 2a                   LDA          SVA
1ed0 60                         RTS                                    ; GO TO ROUTINE
                ;
                ;SVREGS - SAVE REGS WHILE PROCESSING CHARS
                ;
                SVREGS          EQU          *
1ed1 8d 5c 2a                   STA          SVA                       ; SAVE ACU
                SVRGSA          EQU          *
1ed4 8e 5a 2a                   STX          SVX                       ; SAVE X
1ed7 8c 5b 2a                   STY          SVY                       ; SAVE Y
1eda ba                         TSX                                    ;SAVE STACK POINTER
1edb e8                         INX
1edc e8                         INX                                    ;ADJUST IT TO ORIGINAL
1edd 8e 59 2a                   STX          SVSTK
1ee0 a2 03                      LDX          #3                        ; SET FOR FOUR BYTE MOVE
1ee2 bd 53 2a   SVRB            LDA          SVOUTS,X                  ; MOVE SAVED OUT AND IN SW
1ee5 95 36                      STA          OUTSW,X                   ; TO APPLE OUT/IN SW
1ee7 ca                         DEX
1ee8 10 f8                      BPL          SVRB
1eea 60                         RTS                                    ; DONE
                ;;;                PAGE
                ;
                ;COS0 - 1ST CHAR OF PRINTED OUTPUT LINE
                ;CHECK FOR CNTL-D
                ;
                COS0            EQU          *
1eeb ae b7 2a                   LDX          RSTATE                    ;FIRST CHECK FOR 'AFTER APSFT RELOC'
1eee f0 03                      BEQ          COS00                     ;BRANCH IF NOT
1ef0 4c 78 1f                   JMP          COS7
1ef3 ae 51 2a   COS00           LDX          ISTATE                    ; IS IN STATE NOT ZERO
1ef6 f0 08                      BEQ          COS01
1ef8 c9 bf                      CMP          #'?'+$80                  ; THEN IS THIS ?
1efa f0 75                      BEQ          COS6                      ; THEN PRINT ONLY IF MONITOR
1efc c5 33                      CMP          PROMPT
1efe f0 27                      BEQ          COS2A
                COS01           EQU          *
1f00 a2 02                      LDX          #2
1f02 8e 52 2a                   STX          OSTATE
1f05 cd b2 2a                   CMP          CCHAR                     ; IF NOT CNTL-D
1f08 d0 19                      BNE          COS2                      ; THEN GO TO STATE 2
1f0a ca                         DEX
1f0b 8e 52 2a                   STX          OSTATE                    ; ELSE STATE = 1
1f0e ca                         DEX
1f0f 8e 5d 2a                   STX          LBUFD                     ; AND LBUFD=0
                ;
                ;COS1 - ACCUMULATE CMD FROM PRINTED OUTPUT
                ;
                COS1            EQU          *
1f12 ae 5d 2a                   LDX          LBUFD                     ; GET LINE BUFF DISPL
1f15 9d 00 02   COS1A           STA          LBUFF,X                   ; PUT CHAR IN BUFF
1f18 e8                         INX                                    ; INCR PTR
1f19 8e 5d 2a                   STX          LBUFD                     ; SAVE PTR
1f1c c9 8d                      CMP          #$8D                      ; WAS THIS A CR
1f1e d0 75                      BNE          CMDRTN                    ; IF NOT THEN PR CHAR
                ;
1f20 4c cd 1f                   JMP          SCNCMD                    ; GO SCAN COMMAND
                ;
                ;COS2 - PRINTED OUTPUT, NOT FIRST CHAR
                ;
                COS2            EQU          *
1f23 c9 8d                      CMP          #$8D                      ; IS IT A CR
1f25 d0 7d                      BNE          PRRTN                     ; BR IF NOT
1f27 a2 00      COS2A           LDX          #0                        ; SET FOR POSSIBLE C-D NEXT
1f29 8e 52 2a                   STX          OSTATE                    ; NEXT STATE
1f2c 4c a4 1f                   JMP          PRRTN                     ; GO PRINT CHAR
                ;;;                PAGE
                ;
                ;COS3 - KEY IN ECHO PRINT
                ;
                COS3            EQU          *
1f2f a2 00                      LDX          #0
1f31 8e 52 2a                   STX          OSTATE                    ; RESET OUT STATE
1f34 c9 8d                      CMP          #$8D                      ; IS IT CR
1f36 f0 07                      BEQ          COS3A                     ; IF CR THEN CMD CHECK
1f38 ad b3 2a   COS3B           LDA          ESTATE                    ; ELSE: IF NOT EXECUTE
1f3b f0 67                      BEQ          PRRTN                     ; THEN PRINT CHAR
1f3d d0 5e                      BNE          DRTNI                     ; ELSE: PRINT IF MON INPUT
1f3f 48         COS3A           PHA                                    ;SAVE CARRAGE RETURN
1f40 38                         SEC                                    ;ANTICIPATE EXEC FILE INPUT.
1f41 ad b3 2a                   LDA          ESTATE                    ;CHECK EXEC FLAG
1f44 d0 03                      BNE          COS3C                     ;BR IF WAS INPUT FROM EXEC.
1f46 20 5e 26                   JSR          TSTRUN                    ;GO TEST FOR RUN MODE.
1f49 68         COS3C           PLA
1f4a 90 ec                      BCC          COS3B                     ;IGNORE INPUT IF RUNNING.
1f4c ae 5a 2a                   LDX          SVX                       ; GET LINE INDEX
1f4f 4c 15 1f                   JMP          COS1A
                ;
                ;COS4 - DISK OUTPUT MODE
                ;
                COS4            EQU          *
1f52 c9 8d                      CMP          #$8D                      ; IS IT CR
1f54 d0 05                      BNE          COS4A                     ; BR IF NOT CR
1f56 a9 05                      LDA          #5                        ; SET STATE FOR CNTL-D
1f58 8d 52 2a                   STA          OSTATE                    ; EXAMINE
1f5b 20 0e 26   COS4A           JSR          OCTD                      ; GO OUTPUT CJHAR TO DISK
1f5e 4c 99 1f                   JMP          DRTNO                     ; GO TO DATA RETURN (OUT)
                ;
                ;COS5 - DISK OUTPUT MODE - 1ST CHAR OF A LINE
                ;
                COS5            EQU          *
1f61 cd b2 2a                   CMP          CCHAR                     ; IS IT CNTL D
1f64 f0 85                      BEQ          COS0                      ; BR IF CNTL- D
1f66 c9 8a                      CMP          #$8A                      ; LINE FEED?
1f68 f0 f1                      BEQ          COS4A
1f6a a2 04                      LDX          #4
1f6c 8e 52 2a                   STX          OSTATE                    ; SET NEW OUT STATE
1f6f d0 e1                      BNE          COS4                      ; BR IF NOT CNTL D
                ;
                ;COS6 - DISK INPUT ECHO
                ;
1f71 a9 00      COS6            LDA          #0
1f73 8d 52 2a                   STA          OSTATE                    ; RESET OUT STATE = 0
1f76 f0 25                      BEQ          DRTNI                     ; GO TO DATA IN RETURN
                ;
                ; COS7 - SPECIAL FOR RECOVER FROM AS ROM/RAM RELOC.
                ;
1f78 a9 00      COS7            LDA          #0                        ;RESET RELOC STATE
1f7a 8d b7 2a                   STA          RSTATE
1f7d 20 51 28                   JSR          MVCSW                     ;FOR COMPATABILITY ON REENTRY
1f80 4c dc 24                   JMP          ERUN1
                ;;;                PAGE
                ;
                ;PRRTN - PRINT CHAR RETURN
                ;
                ;
                ; CMDRTN - PRINT CHAR IF MONITOR CMBS MODE
                ; DRTNO - PRINT CHAR IF MONITOR DATA OUT
                ; DRTNI - PRINT CHAR IF MONITOR DATA IN
                ;
                CERTN           EQU          *
1f83 ad 00 02                   LDA          LBUFF                     ; CHECK FOR PRINTED COMMAND
1f86 cd b2 2a                   CMP          CCHAR
1f89 f0 0a                      BEQ          CMDRTN                    ; IF PC THEN NO RESET X REG
1f8b a9 8d                      LDA          #$8D                      ; CARRAGE RETURN
1f8d 8d 00 02                   STA          LBUFF                     ; TO OUT BUFFER
1f90 a2 00                      LDX          #0                        ; RESET TO SOL
1f92 8e 5a 2a                   STX          SVX
1f95 a9 40      CMDRTN          LDA          #MC
1f97 d0 06                      BNE          MODECK
1f99 a9 10      DRTNO           LDA          #MO
1f9b d0 02                      BNE          MODECK
1f9d a9 20      DRTNI           LDA          #MI
                ;
                MODECK          EQU          *
1f9f 2d 5e 2a                   AND          MONMOD                    ; AND WITH MODE
1fa2 f0 0f                      BEQ          ORTN                      ; BR IF NOT PRINT
1fa4 20 ba 1f   PRRTN           JSR          LDREGS
1fa7 20 c5 1f                   JSR          ORTN1
1faa 8d 5c 2a                   STA          SVA                       ;SAVE REGISTERS
1fad 8c 5b 2a                   STY          SVY
1fb0 8e 5a 2a                   STX          SVX
                ;
                ORTN            EQU          *
1fb3 20 51 28                   JSR          MVCSW                     ; GO MOVE CHAR I/O SWITCH
1fb6 ae 59 2a                   LDX          SVSTK                     ;RESTORE ORIGINAL STACK POINTER (YEEECH!)
1fb9 9a                         TXS
                LDREGS          EQU          *
1fba ad 5c 2a                   LDA          SVA                       ; ACU
1fbd ac 5b 2a                   LDY          SVY                       ; Y
1fc0 ae 5a 2a                   LDX          SVX                       ; X
1fc3 38                         SEC                                    ;(FOR 'ESC' SCREEN FUNCTIONS)
1fc4 60                         RTS                                    ; BY PASS PRINT
                ;
1fc5 6c 36 00   ORTN1           JMP          (OUTSW)
                ;
                ; PRCRIF - PRINT CR IF MON CMDS
                ;
                PRCRIF          EQU          *
1fc8 a9 8d                      LDA          #$8D                      ; ELSE PRINT CR
1fca 4c c5 1f                   JMP          ORTN1
                
                ; ####################################################################################################
                ; #   END OF FILE:  DOSHOOK
                ; #   LINES      :  215
                ; #   CHARACTERS :  9534
                ; #   Formatter  :  Assembly Language Reformatter 1.0.2 (07 January 1998)
                ; ####################################################################################################
                ; ####################################################################################################
                ; #   PROJECT  :  APPLE ][ DOS 3.3 C SOURCE CODE LISTING -- (C) APPLE COMPUTER INC. JULY 1983
                ; #   FILE NAME:  CMDSCAN
                ; ####################################################################################################
                
                ;;;                PAGE
                ;
                ; SCNCMD - SCAN A COMMAND
                ;
                SCNCMD          EQU          *
                ;;;                DO           ULC
                ;;;                LDX          #0                        ;Init X for lower case check
                ;;;                JSR          UPRCASE                   ;Go check
                ;;;                ELSE
1fcd a0 ff                      LDY          #$FF                      ;Set CMDNO to -1
1fcf 8c 5f 2a                   STY          CMDNO
                ;;;                FIN
1fd2 c8                         INY                                    ; INCR TABLE INDEX
1fd3 8c 62 2a                   STY          SVCMD
                SC0             EQU          *
1fd6 ee 5f 2a                   INC          CMDNO                     ; INCR CMD NO
1fd9 a2 00                      LDX          #0                        ; RESET LINE INDEX TO 0
1fdb 08                         PHP                                    ; SAVE EQ STATUS
1fdc bd 00 02                   LDA          LBUFF,X                   ; GET 1ST LINE CHAR
1fdf cd b2 2a                   CMP          CCHAR                     ; IS IT CONTROL D
1fe2 d0 01                      BNE          SC0A                      ; BR /IF NOT
1fe4 e8                         INX                                    ; INCR OVER CNTLD
1fe5 8e 5d 2a   SC0A            STX          LBUFD
                ;
                SC1X            EQU          *
1fe8 20 a4 21                   JSR          GNBC                      ; GET NON BLANK INPUT CHAR
1feb 29 7f                      AND          #$7F                      ; MSB OF CHAR OFF
1fed 59 84 28                   EOR          CMDNTB,Y                  ; EOR WITH INPUT
1ff0 c8                         INY                                    ; INCREMENT TABLE INDEX
1ff1 0a                         ASL          A                         ; IF MSB OF EOR RESULT ON
1ff2 f0 02                      BEQ          SC1A                      ; IF RESULT NOT NOW ZERO
1ff4 68                         PLA                                    ; THEN INPUT DOES NOT
1ff5 08                         PHP                                    ; EQUAL ENTRY
1ff6 90 f0      SC1A            BCC          SC1X                      ; LOOP FOR END OF ENTRY
                ;
1ff8 28                         PLP                                    ; IF INPUT EQUALS END
1ff9 f0 20                      BEQ          SYNTAX                    ; THEN GO SYNTAX
                ;
1ffb b9 84 28                   LDA          CMDNTB,Y                  ; IF NEXT TABLE CHAR NOT ZERO
1ffe d0 d6                      BNE          SC0                       ; THENSCANTHE NEXT TABLE ENTRY
                CNF             EQU          *                         ; COMMAND NOT FOUND
2000 ad 00 02                   LDA          LBUFF                     ; LINE IS A CNOTROL-D
2003 cd b2 2a                   CMP          CCHAR                     ; THEN THIS IS A
2006 f0 03                      BEQ          CNF1                      ; POSSIBLE SYNTAX ERROR, ELSE
2008 4c a4 1f                   JMP          PRRTN                     ; ITS A BASIC INPUT LINE
                CNF1            EQU          *
200b ad 01 02                   LDA          LBUFF+1                   ; GET NEXT CHAR
200e c9 8d                      CMP          #$8D                      ; IS IT A CR
2010 d0 06                      BNE          CSERR                     ; BR IF CR
2012 20 5b 27                   JSR          CLRSTS                    ; CLEAR THE STATES
2015 4c 95 1f                   JMP          CMDRTN                    ; CNTL-D ONLY
                ;
2018 4c c4 26   CSERR           JMP          ESYNTX
                ;;;                PAGE
                ;
                ; SYNTAX - FIGURE OUT WHAT WE GOT HERE
                ;
                SYNTAX          EQU          *
201b 0e 5f 2a                   ASL          CMDNO                     ; CMDNO=CMDNO*2
201e ac 5f 2a                   LDY          CMDNO
2021 20 5e 26                   JSR          TSTRUN                    ;TEST FOR COMMANDS THAT MAY
2024 90 0c                      BCC          SYN1                      ; NOT BE EXECUTED DIRECTLY
2026 a9 02                      LDA          #RNONLY                   ;GET RUN ONLY FLAG
2028 39 09 29                   AND          CMDSTB,Y                  ;IF FLAG=0 THEN
202b f0 05                      BEQ          SYN1                      ; OK TO EXECUTE
202d a9 0f                      LDA          #$F                       ;OTHERWISE, GIVE "NOT DIRECT"
202f 4c d2 26                   JMP          ERROR                     ; MESSAGE.
2032 c0 06      SYN1            CPY          #6                        ;TEST FOR 'RUN' COMMAND
2034 d0 02                      BNE          SYN1A
2036 84 33                      STY          PROMPT                    ;CHANGE PROMPT TO INSURE APPLESOFT RUN DETECT.
2038 a9 20      SYN1A           LDA          #FN1
203a 39 09 29                   AND          CMDSTB,Y                  ; IS FN1 REQD
203d f0 61                      BEQ          SN10                      ; BR IF NOT
203f 20 95 20                   JSR          CLRFNS
2042 08                         PHP                                    ; SAVE EQ STATUS
                ;
                SN2             EQU          *
2043 20 a4 21                   JSR          GNBC                      ; GET NON BLANK CHAR
2046 f0 1e                      BEQ          SN6                       ; BR IF CR OR COMMA
2048 0a                         ASL          A                         ; TEST FOR ALPHA
2049 90 05                      BCC          SN2A                      ; BR IF ALPHA
204b 30 03                      BMI          SN2A                      ; BR IF APLHA
204d 4c 00 20                   JMP          CNF                       ; LURCH IF NOT ALPHA
2050 6a         SN2A            ROR          A                         ; RESTORE BITS
2051 4c 59 20                   JMP          SN4                       ; AWAY WE GO
2054 20 93 21   SN3             JSR          GNXTC                     ; GO GET NEXT CHAR
2057 f0 0d                      BEQ          SN6                       ; BR IF COMMA OR CR
2059 99 75 2a   SN4             STA          FNAME1,Y                  ; PUT INTO FILENAME
205c c8                         INY                                    ; INC FN INDEX
205d c0 3c                      CPY          #60                       ; ATFN CHAR LIMIT
205f 90 f3                      BCC          SN3                       ; BR IF NOT
2061 20 93 21   SN5             JSR          GNXTC                     ; LOOP UNTIL CR OR COMMA
2064 d0 fb                      BNE          SN5
                ;
2066 28         SN6             PLP                                    ; WAS THIS FN2 L OO
2067 d0 0f                      BNE          SN7                       ; BR IF IT WAS
                ;
2069 ac 5f 2a                   LDY          CMDNO
206c a9 10                      LDA          #FN2
206e 39 09 29                   AND          CMDSTB,Y                  ; IF FN2 NOT REQD THEN
2071 f0 0c                      BEQ          SN8                       ; BRANCH
                ;
2073 a0 1e                      LDY          #30                       ; SET FN2 INDEX
2075 08                         PHP                                    ; INDICATE FN2 SEEK
2076 d0 cb                      BNE          SN2                       ; GO LOOK FOR FN2
                ;
2078 ad 93 2a   SN7             LDA          FNAME2                    ; IF 1ST CHAR OF
207b c9 a0                      CMP          #$A0                      ; FN2 IS BLANK THEN
207d f0 13                      BEQ          SERR1                     ; SYNTAX ERROR
                ;
207f ad 75 2a   SN8             LDA          FNAME1                    ; IF 1ST CHAR OF
2082 c9 a0                      CMP          #$A0                      ; FN1 IS NOT BLANK
2084 d0 4b                      BNE          SOPTS                     ; THEN GO LOOK FOR OPTIONS
                ;
2086 ac 5f 2a                   LDY          CMDNO
2089 a9 c0                      LDA          #NPB+NPE                  ; IF CMD MUST HAVE FILENAME
208b 39 09 29                   AND          CMDSTB,Y                  ; THEN
208e f0 02                      BEQ          SERR1                     ; THIS IS ERROR, ELSE
                ;
2090 10 3f                      BPL          SOPTS                     ; ITS EXCUTABLE WITHOUT
                ;
2092 4c 00 20   SERR1           JMP          CNF
                ;
                CLRFNS          EQU          *
2095 a0 3c                      LDY          #60
                CLRFNA          EQU          *
2097 a9 a0                      LDA          #$A0
2099 99 74 2a   SN1             STA          FNAME1-1,Y                ; CLEAR FN1, FN2
209c 88                         DEY
209d d0 fa                      BNE          SN1
209f 60                         RTS
                ;;;                PAGE
                SN10            EQU          *                         ; FILE NAMES NOT REQD
20a0 8d 75 2a                   STA          FNAME1
20a3 a9 0c                      LDA          #NUM1+NUM2                ; IF NEITHER NUM1
20a5 39 09 29                   AND          CMDSTB,Y                  ; OR NUM2 IS REQD
20a8 f0 27                      BEQ          SOPTS                     ; THEN GO LOOK AT OPTIONS
                ;
20aa 20 b9 21                   JSR          GETNUM                    ; GO GET NUMERICS
20ad b0 1f                      BCS          SERR2
                ;
20af a8                         TAY                                    ; IF HIGH DIGIT NOT
20b0 d0 17                      BNE          SERR3                     ; ZERO THEN BAD
                ;
20b2 e0 11                      CPX          #17                       ; IF LOW DIGIT GT 16
20b4 b0 13                      BCS          SERR3                     ; THEN BAD
                ;
20b6 ac 5f 2a                   LDY          CMDNO
20b9 a9 08                      LDA          #NUM1
20bb 39 09 29                   AND          CMDSTB,Y                  ; IF WE WANT NUM2
20be f0 06                      BEQ          SN11
                ;
20c0 e0 08                      CPX          #8                        ; IF NUM2>1
20c2 b0 ce                      BCS          SERR1                     ; THEN ERROR, ELSE
20c4 90 0b                      BCC          SOPTS                     ; GO SCAN OPTIONS
                ;
                SN11            EQU          *
20c6 8a                         TXA                                    ; IF NUM1=0
20c7 d0 08                      BNE          SOPTS                     ; THEN ERROR, ELSE GET OPTIONS
                ;
20c9 a9 02      SERR3           LDA          #2                        ;RANGE ERROR!
20cb 4c d2 26                   JMP          ERROR
20ce 4c c4 26   SERR2           JMP          ESYNTX                    ;DISK CMD SYNTAX ERROR
                ;
                ;;;                PAGE
                ;
                ; SOPTS - LOOK FOR SYNTAX OPTIONS
                ;
                SOPTS           EQU          *
20d1 a9 00                      LDA          #0
20d3 8d 65 2a                   STA          INOPTS                    ; CLEAR INPUT OPTIONS
20d6 8d 74 2a                   STA          IMBITS
20d9 8d 66 2a                   STA          CV                        ;DEFAULT VOLUME=0
20dc 8d 6c 2a                   STA          CL
20df 8d 6d 2a                   STA          CL+1
20e2 20 dc 3f                   JSR          CLRBYTE                   ;PATCH FOR BYTE PARAMETER (WAS STA TEMP1A)
20e5 ad 5d 2a                   LDA          LBUFD                     ; SET PASS 1
                ;
20e8 20 a4 21   SP1             JSR          GNBC                      ; GO GET NON-BLANK CHAR
20eb d0 1f                      BNE          SP2                       ; BR IF NOT COMMA OR CR
20ed c9 8d                      CMP          #$8D                      ; IF CHAR IS COMMA
20ef d0 f7                      BNE          SP1                       ; THEN GO GET CHAR
                ;
20f1 ae 5f 2a                   LDX          CMDNO                     ; OPTIONS INPUT = I
20f4 ad 65 2a                   LDA          INOPTS                    ; ALLOW OPTS = A
20f7 1d 0a 29                   ORA          CMDSTB+1,X                ; IF (A OR I)
20fa 5d 0a 29                   EOR          CMDSTB+1,X                ; XOR A NOT = 0 THEN
20fd d0 93                      BNE          SERR1                     ; WE HAVE UNALLOWED OPTIONS
                ;
20ff ae 63 2a                   LDX          TEMP1A                    ; IF THIS IS PASS 2
2102 f0 76                      BEQ          CMDGO                     ; THEN DONE,
2104 8d 63 2a                   STA          TEMP1A                    ; ELSE SET PASS
2107 8e 5d 2a                   STX          LBUFD                     ; RESTORE LBUFD AND
210a d0 dc                      BNE          SP1                       ; GO DO PASS 2
                ;
210c a2 0a      SP2             LDX          #OPT1L                    ; COMPARE CHAR HAVE WITH
210e dd 40 29   SP3             CMP          OPTAB1-1,X                ; CHARS IN OPT TABLE
2111 f0 05                      BEQ          SP4                       ; IF FOUND CONTINUE,
2113 ca                         DEX
2114 d0 f8                      BNE          SP3                       ; IF NOT FOUND
2116 f0 b6      SERR2A          BEQ          SERR2                     ; THEN SYNTAX ERROR
                ;
2118 bd 4a 29   SP4             LDA          OPTAB2-1,X                ; IF CORRESPONDING OP TAB 2 IS
211b 30 47                      BMI          SP8                       ; MINUS THEN IT MONITOR BITS
211d 0d 65 2a                   ORA          INOPTS
2120 8d 65 2a                   STA          INOPTS
2123 ca                         DEX
                ;
2124 8e 64 2a                   STX          TEMP2A                    ; ELSE A NUMERIC MUST FOLLOW
2127 20 b9 21                   JSR          GETNUM                    ; FOLLOW
212a b0 a2                      BCS          SERR2
                ;
212c ad 64 2a                   LDA          TEMP2A                    ; GET IOTION NUMBER
212f 0a                         ASL          A                         ; MULT BY 4
2130 0a                         ASL          A
2131 a8                         TAY
                ;
2132 a5 45                      LDA          CNUM+1                    ; IF RESULT NUM HI IS
2134 d0 09                      BNE          SP5                       ; GT 0, THEN GT LOW RANGE
2136 a5 44                      LDA          CNUM                      ; TEST RESULT LOW
2138 d9 55 29                   CMP          OPTAB3,Y                  ; WITH LOW RANGE (LOW)
213b 90 8c                      BCC          SERR3                     ; BR IF RESULT < LR
213d a5 45                      LDA          CNUM+1
213f d9 58 29   SP5             CMP          OPTAB3+3,Y
2142 90 0b                      BCC          SP6                       ; BR IF LESS
2144 d0 83      SERR3A          BNE          SERR3                     ; BR IF GREATER
2146 a5 44                      LDA          CNUM
2148 d9 57 29                   CMP          OPTAB3+2,Y
214b 90 02                      BCC          SP6                       ; BR IF LESS
214d d0 f5                      BNE          SERR3A                    ; BR IF GREATER
                ;
214f ad 63 2a   SP6             LDA          TEMP1A                    ; IF PASS 1, THEN
2152 d0 94                      BNE          SP1                       ; DONT STORE RESULT
2154 98                         TYA
2155 4a                         LSR          A
2156 a8                         TAY
                ;
2157 a5 45                      LDA          CNUM+1                    ; STORE THE RESULT
2159 99 67 2a                   STA          CUROPT+1,Y
215c a5 44                      LDA          CNUM
215e 99 66 2a                   STA          CUROPT,Y
2161 4c e8 20   SP7             JMP          SP1                       ; GO FOR NEXT OPT
                ;
                SP8             EQU          *                         ; MONITOR REQ
2164 48                         PHA                                    ; SAVE TYPE REQ
2165 a9 80                      LDA          #CIO                      ; SET OPTION OF CIO
2167 0d 65 2a                   ORA          INOPTS
216a 8d 65 2a                   STA          INOPTS
216d 68                         PLA                                    ; RESTOERE REQ
216e 29 7f                      AND          #$7F                      ; CLEAR CIO
2170 0d 74 2a                   ORA          IMBITS                    ; OR WITH PREV IMBITS
2173 8d 74 2a                   STA          IMBITS
2176 d0 e9                      BNE          SP7                       ; GO FOR NEXT
                ;
2178 f0 9c                      BEQ          SERR2A                    ;BRANCH ALWAYS
                ;
217a 20 80 21   CMDGO           JSR          CMDGO1                    ; CMDGO - EXECUTE COMMAND
217d 4c 83 1f                   JMP          CERTN
                ;
                CMDGO1          EQU          *
2180 20 5b 27                   JSR          CLRSTS
2183 20 ae 21                   JSR          CLRCCB                    ; GO CLEAR CCB
                ECMD            EQU          *
2186 ad 5f 2a                   LDA          CMDNO                     ; COMMAND NO
2189 aa                         TAX                                    ; IS CMD EXEC TAB INDEX
218a bd 1f 1d                   LDA          CMDETB+1,X                ; GET CMD ADR
218d 48                         PHA                                    ; ONTO STACK
218e bd 1e 1d                   LDA          CMDETB,X
2191 48                         PHA
2192 60                         RTS                                    ; AND GOTO COMMAND
                
                ; ####################################################################################################
                ; #   END OF FILE:  CMDSCAN
                ; #   LINES      :  270
                ; #   CHARACTERS :  13581
                ; #   Formatter  :  Assembly Language Reformatter 1.0.2 (07 January 1998)
                ; ####################################################################################################
                ; ####################################################################################################
                ; #   PROJECT  :  APPLE ][ DOS 3.3 C SOURCE CODE LISTING -- (C) APPLE COMPUTER INC. JULY 1983
                ; #   FILE NAME:  XOPNCLS
                ; ####################################################################################################
                
                ;;;                PAGE
                ;
                ; GNXTC - GET NEXT CHAR
                ;
                GNXTC           EQU          *
2193 ae 5d 2a                   LDX          LBUFD
2196 bd 00 02                   LDA          LBUFF,X                   ; GET NEXT CHAR AND IF
2199 c9 8d                      CMP          #$8D                      ; IT IS A CR
219b f0 06                      BEQ          GNXTCR                    ; THEN RETURN WITHOUT
219d e8                         INX                                    ; INCR TO NEXT CHAR
219e 8e 5d 2a                   STX          LBUFD
21a1 c9 ac                      CMP          #','+$80                  ; TEST FOR COMMA
21a3 60         GNXTCR          RTS
                ;
                ; GNBC - GET NON BLANK CHAR
                ;
                GNBC            EQU          *
21a4 20 93 21                   JSR          GNXTC                     ; GO GET NEXT CHAR
21a7 f0 fa                      BEQ          GNXTCR                    ; BR IF COMMA OR CR
21a9 c9 a0                      CMP          #$A0                      ; IS IT BLANK
21ab f0 f7                      BEQ          GNBC                      ; BR IF BLANK
21ad 60                         RTS                                    ; DONE
                ;
                ; CLRCCB - CLEAR CCB
                ;
                CLRCCB          EQU          *
21ae a9 00                      LDA          #0
21b0 a0 16                      LDY          #CCBLEN                   ; CCBLENGTH
21b2 99 ba 35   CLC1            STA          CCB-1,Y                   ; CLEAR BYTE
21b5 88                         DEY
21b6 d0 fa                      BNE          CLC1
21b8 60                         RTS
                ;;;                PAGE
                ;
                ; GETNUM - CONVERT ASCII INPUT TO NUMERIC
                ;
                GETNUM          EQU          *
21b9 a9 00                      LDA          #0                        ; CLEAR WORK AREA
21bb 85 44                      STA          CNUM
21bd 85 45                      STA          CNUM+1
21bf 20 a4 21                   JSR          GNBC
21c2 08                         PHP
21c3 c9 a4                      CMP          #$A4
21c5 f0 3c                      BEQ          HEXNUM
21c7 28                         PLP
21c8 4c ce 21                   JMP          GN2A
                ;
21cb 20 a4 21   GN2             JSR          GNBC                      ; GET NEXT NON BLANK
                GN2A            EQU          *
21ce d0 06                      BNE          GN3                       ; BR NOT COMMA OR CR
21d0 a6 44                      LDX          CNUM                      ; X=RESULT LOW
21d2 a5 45                      LDA          CNUM+1                    ; Y=RESULT HI
21d4 18                         CLC
21d5 60                         RTS                                    ; DONE
                ;
21d6 38         GN3             SEC
21d7 e9 b0                      SBC          #$B0                      ; SUBTRACT ASCII 0
21d9 30 21                      BMI          GN4                       ; BR IF NOT NUM
21db c9 0a                      CMP          #10
21dd b0 1d                      BCS          GN4                       ; BR IF NOT NUM
21df 20 fe 21                   JSR          GN5                       ; OLD*2
21e2 65 44                      ADC          CNUM                      ; PLUS NEW
21e4 aa                         TAX
21e5 a9 00                      LDA          #0
21e7 65 45                      ADC          CNUM+1
21e9 a8                         TAY
21ea 20 fe 21                   JSR          GN5                       ; OLD*4
21ed 20 fe 21                   JSR          GN5                       ; OLD*8
21f0 8a                         TXA                                    ; OLD*8 + OLD*2 + NEW
21f1 65 44                      ADC          CNUM
21f3 85 44                      STA          CNUM                      ; =OLD*10 + NEW
21f5 98                         TYA
21f6 65 45                      ADC          CNUM+1
21f8 85 45                      STA          CNUM+1
21fa 90 cf                      BCC          GN2
                ;
                GN4             EQU          *
21fc 38                         SEC
21fd 60                         RTS                                    ; DONE
                GN5             EQU          *
21fe 06 44                      ASL          CNUM                      ; CNUM * 2
2200 26 45                      ROL          CNUM+1
2202 60                         RTS
                ;;;                PAGE
                ;
                HEXNUM          EQU          *
2203 28                         PLP
                HN0             EQU          *
2204 20 a4 21                   JSR          GNBC                      ; GO GET CHAR
2207 f0 c5                      BEQ          GN2A                      ; BR IF CR OR COMMA
                ;
2209 38                         SEC
220a e9 b0                      SBC          #$B0                      ; CHAR - ASCII0
220c 30 ee                      BMI          GN4                       ; BR IF LT0
220e c9 0a                      CMP          #10                       ; IS IT LT10
2210 90 08                      BCC          HN1                       ; BR IF LT
2212 e9 07                      SBC          #$7                       ; SUB 7 FOR ASCII A
2214 30 e6                      BMI          GN4                       ; BR IF LT A
2216 c9 10                      CMP          #16                       ; TEST GT 15
2218 b0 e2                      BCS          GN4                       ; BR GT 15
221a a2 04      HN1             LDX          #4
221c 20 fe 21   HN2             JSR          GN5                       ; OLD*16
221f ca                         DEX                                    ;LOOP 4 TIMES ONLY
2220 d0 fa                      BNE          HN2
2222 05 44                      ORA          CNUM                      ; OR IN NEW
2224 85 44                      STA          CNUM                      ; SAVE NEW
2226 4c 04 22                   JMP          HN0                       ; GO FOR NEXT CHAR
                ;;;                PAGE
                ;
                ; EPR - EXECUTE PR#
                ;
                EPR             EQU          *
2229 a5 44                      LDA          CNUM                      ; GET PORT
222b 4c 95 fe                   JMP          OUTPRT                    ; GO DO IT
                ;
                ; EIN - EXECUTE IN#
                ;
                EIN             EQU          *
222e a5 44                      LDA          CNUM                      ; GET PORT
2230 4c 8b fe                   JMP          INPRT                     ; GO DO IT
                ;
                ; EMON - EXECUTE MONITOR CMD
                ;
                EMON            EQU          *
2233 ad 5e 2a                   LDA          MONMOD                    ; GET CURRENT BITS
2236 0d 74 2a                   ORA          IMBITS                    ; OR IN NEW BITS
2239 8d 5e 2a                   STA          MONMOD                    ; SET NEW MODE
223c 60                         RTS
                ;
                ; ENONON - EXECUTE NO MONITOR CMD
                ;
                ENOMON          EQU          *
223d 2c 74 2a                   BIT          IMBITS
2240 50 03                      BVC          ENM1
2242 20 c8 1f                   JSR          PRCRIF
                ENM1            EQU          *
2245 a9 70                      LDA          #$70
2247 4d 74 2a                   EOR          IMBITS                    ; INVERT INPUT BITS
224a 2d 5e 2a                   AND          MONMOD                    ; AND WITH CURRENT
224d 8d 5e 2a                   STA          MONMOD                    ; SET NEW MODE
2250 60                         RTS
                ;;;                PAGE
                ;
                ; EMAXF - EXECUTE MAX FILES
                ;
                EMAXF           EQU          *
2251 a9 00                      LDA          #0                        ; RESET EXECUTE
2253 8d b3 2a                   STA          ESTATE
2256 a5 44                      LDA          CNUM                      ; SAVE NEW NO FILES
2258 48                         PHA
2259 20 16 23                   JSR          CLALL                     ; GO CLOSE ALL FILES
225c 68                         PLA
225d 8d 57 2a                   STA          CNFTBS                    ; SET NEW NO FILE TBLS
2260 4c d4 27                   JMP          BLDFTB                    ; GO BUILD NEW ONES
                ;
                ; EDEL - DELETE A FILE
                ;
                EDEL            EQU          *
2263 a9 05                      LDA          #CRQDEL                   ; DELETE REQUEST
2265 20 aa 22                   JSR          OPEN                      ; GO OPEN
2268 20 64 27                   JSR          FILSRC                    ; FIND FILE
226b a0 00                      LDY          #0
226d 98                         TYA
226e 91 40                      STA          (ZPGWRK),Y                ; RESET FN
2270 60                         RTS
                ;
                ; ELOCK - LOCK A FILE
                ;
                ELOCK           EQU          *
2271 a9 07                      LDA          #CRQLCK                   ; SET LOCK
2273 d0 02                      BNE          ELGO
                ;
                ; EUNLK - UNLOCK A FILE
                ;
                EUNLK           EQU          *
2275 a9 08                      LDA          #CRQUNL                   ; SET UNLOCK
                ELGO            EQU          *
2277 20 aa 22                   JSR          OPEN                      ; OPEN FILE & UNLOCK
227a 4c ea 22                   JMP          ECLOSE                    ; CLOSE IT
                ;
                ; EVAR - VERIFY A FILE
                ;
                EVAR            EQU          *
227d a9 0c                      LDA          #CRQVAR                   ; SET VARIFY
227f d0 f6                      BNE          ELGO
                ;;;                PAGE
                ;
                ; EREN - RENAME A FILE
                ;
                EREN            EQU          *
2281 ad 08 1d                   LDA          FN2ADR                    ; MOVE FILE NAME2
2284 8d bd 35                   STA          CCBFN2
2287 ad 09 1d                   LDA          FN2ADR+1
228a 8d be 35                   STA          CCBFN2+1
228d a9 09                      LDA          #CRQRNM
228f 8d 63 2a                   STA          TEMP1A                    ; SET RENAME
2292 20 c8 22                   JSR          EO3                       ; GO OPEN AND RENAME
2295 4c ea 22                   JMP          ECLOSE                    ; GO CLOSE
                ;
                ; EAPND - OPEN FILE FOR APPEND
                ;
                EAPND           EQU          *
2298 20 a3 22                   JSR          EOPEN                     ; GO OPEN
                AP1             EQU          *
229b 20 8c 26                   JSR          RBYTE                     ; READ A BYTE
229e d0 fb                      BNE          AP1                       ; BR IF NOT ZERO
                ;
22a0 4c 71 36                   JMP          BUMPER                    ; GO TO PATCH FOR APPEND FIX
                ;;;                PAGE
                ;
                ; EOPEN - OPEN A FILE
                ;
22a3 a9 00      EOPEN           LDA          #0                        ;FIX TYPE MISMATCH DETECTION
22a5 4c d5 23                   JMP          SV1                       ;(CALLS EOPN1)
22a8 a9 01      EOPN1           LDA          #CRQOPN
                OPEN            EQU          *
22aa 8d 63 2a                   STA          TEMP1A
22ad ad 6c 2a                   LDA          CL                        ; IF NO LENGTH ENTERED
22b0 d0 0a                      BNE          EO1                       ; THEN SET DEFAULT OF 1
22b2 ad 6d 2a                   LDA          CL+1
22b5 d0 05                      BNE          EO1
22b7 a9 01                      LDA          #1
22b9 8d 6c 2a                   STA          CL
                EO1             EQU          *
22bc ad 6c 2a                   LDA          CL                        ; MOVE REC LENGTH
22bf 8d bd 35                   STA          CCBRLN
22c2 ad 6d 2a                   LDA          CL+1
22c5 8d be 35                   STA          CCBRLN+1
                EO3             EQU          *
22c8 20 ea 22                   JSR          ECLOSE                    ; GO CLOSE IF OPEN
                EO4             EQU          *
22cb a5 45                      LDA          CNUM+1                    ; GET AVALL ENTRY
22cd d0 03                      BNE          EO5                       ; BR IF ONE AVAIL
22cf 4c c8 26                   JMP          ENFA                      ; DONE - NO FILES AVAIL
                EO5             EQU          *
22d2 85 41                      STA          ZPGWRK+1                  ; MOVE AVAIL SLOT TO ZPG
22d4 a5 44                      LDA          CNUM
22d6 85 40                      STA          ZPGWRK
                EO6             EQU          *
22d8 20 43 27                   JSR          MVFN1                     ; GO MOVE FILE NAME
22db 20 4e 27                   JSR          MVBUFP                    ; GO MOVE BUF PTRS
22de 20 1a 27                   JSR          OPNSUP                    ; GO SET UP OPEN
22e1 ad 63 2a                   LDA          TEMP1A                    ; SET OPEN REQ
22e4 8d bb 35                   STA          CCBREQ
22e7 4c a8 26                   JMP          DOSGO                     ; GO OPEN
                ;;;                PAGE
                ;
                ; ECLOSE - EXECUTE CLOSE FILE COMMAND
                ;
                ECLOSE          EQU          *
22ea ad 75 2a                   LDA          FNAME1
22ed c9 a0                      CMP          #$A0
22ef f0 25                      BEQ          CLALL
22f1 20 64 27                   JSR          FILSRC                    ; GO FIND FILE
22f4 b0 3a                      BCS          CL2                       ; BR IF NOT FOUND
22f6 20 fc 22                   JSR          CLOSE                     ; GO CLOSE
22f9 4c ea 22                   JMP          ECLOSE                    ; GO SEE IF ANY MORE OPEN
                ;
                ; CLOSE - CLOSE A FILE
                ;
                CLOSE           EQU          *
22fc 20 af 27                   JSR          TSTEXC
22ff d0 05                      BNE          CLX
2301 a9 00                      LDA          #0
2303 8d b3 2a                   STA          ESTATE
                CLX             EQU          *
2306 a0 00                      LDY          #0                        ; CLEAR 1ST FN
2308 98                         TYA                                    ; CHAR TO ZERO
2309 91 40                      STA          (ZPGWRK),Y
230b 20 4e 27                   JSR          MVBUFP                    ; MOVE BUFFER PTRS
230e a9 02                      LDA          #CRQCLS                   ; SET CLOSE
2310 8d bb 35                   STA          CCBREQ
2313 4c a8 26                   JMP          DOSGO                     ; GO CLOSE
                ;
                ; CLALL - CLOSE ALL FILES
                ;
                CLALL           EQU          *
2316 20 92 27                   JSR          TSINIT                    ; GO INIT FILE SEARCH
2319 d0 05                      BNE          CL1
                CL0             EQU          *
231b 20 9a 27                   JSR          TSNXT                     ; NEXT ENTRY
231e f0 10                      BEQ          CL2                       ; BR IF NO MORE
                CL1             EQU          *
2320 20 af 27                   JSR          TSTEXC
2323 f0 f6                      BEQ          CL0
2325 20 aa 27                   JSR          TSTOPN                    ; GO TEST OPEN
2328 f0 f1                      BEQ          CL0                       ; BR NOT OPEN
232a 20 fc 22                   JSR          CLOSE                     ; GO CLOSE
232d 4c 16 23                   JMP          CLALL                     ; START OVER
2330 60         CL2             RTS                                    ; DONE
                
                ; ####################################################################################################
                ; #   END OF FILE:  XOPNCLS
                ; #   LINES      :  290
                ; #   CHARACTERS :  11533
                ; #   Formatter  :  Assembly Language Reformatter 1.0.2 (07 January 1998)
                ; ####################################################################################################
                ; ####################################################################################################
                ; #   PROJECT  :  APPLE ][ DOS 3.3 C SOURCE CODE LISTING -- (C) APPLE COMPUTER INC. JULY 1983
                ; #   FILE NAME:  XLODSAV
                ; ####################################################################################################
                
                ;;;                PAGE
                ;
                ; EBSV - EXECUTE BINARY SAVE
                ;
                EBSV            EQU          *
2331 a9 09                      LDA          #ADR+L                    ; IF A&L
2333 2d 65 2a                   AND          INOPTS                    ; NOT GIVEN
2336 c9 09                      CMP          #ADR+L
2338 f0 03                      BEQ          EBSV1
233a 4c 00 20                   JMP          CNF                       ; THEN ERROR
                EBSV1           EQU          *
233d a9 04                      LDA          #4                        ; SET BINARY FILE
233f 20 d5 23                   JSR          SV1                       ; GO OPEN & TEST
2342 ad 73 2a                   LDA          CA+1                      ; OUTPUT ADR OF BLOCK
2345 ac 72 2a                   LDY          CA
2348 20 e0 23                   JSR          SV2
234b ad 6d 2a                   LDA          CL+1                      ; GO OPEN AND TEST
234e ac 6c 2a                   LDY          CL
2351 20 e0 23                   JSR          SV2                       ; OUTPUT LENGTH
2354 ad 73 2a                   LDA          CA+1                      ; GET ADR GIVEN
2357 ac 72 2a                   LDY          CA
235a 4c ff 23                   JMP          SV3                       ; OUTPUT BLOCK
                ;
                ; EBLD - EXECUTE BINARY LOAD
                ;
                EBLD            EQU          *
235d 20 a8 22                   JSR          EOPN1                     ;(CHANGED 11/1/78 FOR TYPE MISMATCH)
                EBLD2           EQU          *
2360 a9 7f                      LDA          #$7F
2362 2d c2 35                   AND          CCBFUC
2365 c9 04                      CMP          #4
2367 f0 03                      BEQ          EBLD3
2369 4c d0 26                   JMP          ETYP                      ;TYPE MISMATCH ERROR MESSAGE
                EBLD3           EQU          *
236c a9 04                      LDA          #4                        ; SET BINARY FILE
236e 20 d5 23                   JSR          SV1                       ; GO OPEN & TEST
2371 20 7a 24                   JSR          LD2                       ; GO GET ADR
2374 aa                         TAX
2375 ad 65 2a                   LDA          INOPTS
2378 29 01                      AND          #ADR                      ; IF ADR NOT GIVEN
237a d0 06                      BNE          EBLD1
237c 8e 72 2a                   STX          CA                        ; THEN USE ADR FROM FILE
237f 8c 73 2a                   STY          CA+1
                EBLD1           EQU          *
2382 20 7a 24                   JSR          LD2                       ; GET LENGTH
2385 ae 72 2a                   LDX          CA                        ; GET GIVEN ADR
2388 ac 73 2a                   LDY          CA+1
238b 4c 71 24                   JMP          LD3                       ; GO GET BLOCK
                ;
                ; EBRUN - EXECUTE BINARY RUN
                ;
238e 20 5d 23   EBRUN           JSR          EBLD                      ;DO A BINARY LOAD
2391 20 51 28                   JSR          MVCSW                     ; GO RESTORE CHAR I/O SW
2394 6c 72 2a                   JMP          (CA)                      ; GO EXEC THE STUFF
                ;;;                PAGE
                ;
                ; ESAVE - EXECUTE SAVE REQUEST
                ;
                ESAVE           EQU          *
2397 ad b6 2a                   LDA          ASIBSW                    ; IF IB THEN
239a f0 20                      BEQ          EIBSV                     ; GO TO IB SAVE
239c a5 d6                      LDA          ASRNX                     ;CANNOT DO AS SAVE WHEN RUN-ONLY PROG.
239e 10 03                      BPL          EASAV                     ;BRANCH IF OK TO SAVE, OTHERWISE
23a0 4c cc 26                   JMP          MFERR                     ;PRINT "PROGRAM TOO LARGE", THAT OUGHT TO GET 'EM.
23a3 a9 02      EASAV           LDA          #2                        ; GET APPLESOFT PGM
23a5 20 d5 23                   JSR          SV1                       ; GO OPEN AND TEST
                ;
23a8 38                         SEC                                    ; BLOCK LENGTH
23a9 a5 af                      LDA          ASEOP                     ; =EOP-SOP
23ab e5 67                      SBC          ASSOP
23ad a8                         TAY
23ae a5 b0                      LDA          ASEOP+1
23b0 e5 68                      SBC          ASSOP+1
23b2 20 e0 23                   JSR          SV2                       ; GO OUTPUT LENGTH
                ;
23b5 a5 68                      LDA          ASSOP+1                   ; BLOCK ADR
23b7 a4 67                      LDY          ASSOP                     ; =SOP
23b9 4c ff 23                   JMP          SV3                       ; GO OUTPUT BLOCK
                ;
                EIBSV           EQU          *
23bc a9 01                      LDA          #1                        ; SET IB PGM
23be 20 d5 23                   JSR          SV1                       ; GO OPEN AND TEST
                ;
23c1 38                         SEC                                    ; BLOCK LENGTH
23c2 a5 4c                      LDA          IBHMEM                    ; =HIMEM-SOP
23c4 e5 ca                      SBC          IBSOP
23c6 a8                         TAY
23c7 a5 4d                      LDA          IBHMEM+1
23c9 e5 cb                      SBC          IBSOP+1
23cb 20 e0 23                   JSR          SV2                       ; GO OUTPUT LENGTH
                ;
23ce a5 cb                      LDA          IBSOP+1                   ; BLOCK ADR
23d0 a4 ca                      LDY          IBSOP                     ; =SOP
23d2 4c ff 23                   JMP          SV3                       ; GO OUTPUT BLOCK
                ;
                SV1             EQU          *
                SV1A            EQU          *
23d5 8d c2 35                   STA          CCBFUC                    ; SET PGM TYPE
23d8 48                         PHA                                    ; SAVE PGM TYPE
23d9 20 a8 22                   JSR          EOPN1                     ; GO OPEN FILE  (CHGED 11/1/78)
23dc 68                         PLA                                    ; GET SAVE TYPE
23dd 4c c4 27                   JMP          TSTFUC                    ; GO CHECK
                ;
                SV2             EQU          *
23e0 8c c1 35                   STY          CCBBLN                    ; SET BLOCK LENGTH
23e3 8c c3 35                   STY          CCBDAT                    ; AND DATA BYTE
23e6 8d c2 35                   STA          CCBBLN+1
23e9 a9 04                      LDA          #CRQWR                    ; INDICATE WRITE
23eb 8d bb 35                   STA          CCBREQ
23ee a9 01                      LDA          #CRMNBT                   ; NEXT BYTE
23f0 8d bc 35                   STA          CCBRQM
23f3 20 a8 26                   JSR          DOSGO                     ; GO WRITE
23f6 ad c2 35                   LDA          CCBBLN+1                  ; OTHER BYTE TOO
23f9 8d c3 35                   STA          CCBDAT
23fc 4c a8 26                   JMP          DOSGO
                ;
23ff 8c c3 35   SV3             STY          CCBBBA                    ; SET BLOCK ADR
2402 8d c4 35                   STA          CCBBBA+1
2405 a9 02                      LDA          #CRMNBL                   ; INDICATE BLOCK I/O
2407 4c 86 36                   JMP          VPATCH                    ;VERIFY AFTER SAVE
240a 20 a8 26   GODOS           JSR          DOSGO                     ; GO DO IT
240d 4c ea 22                   JMP          ECLOSE                    ; CLOSE FILE
                ;;;                PAGE
2410 4c d0 26   NBPER           JMP          ERNU1
                ;
                ; ELOAD - EXECUTE LOAD REQUEST
                ;
                ELOAD           EQU          *
2413 20 16 23                   JSR          CLALL                     ; GO CLOSE ALL
2416 20 a8 22   ELOAD0          JSR          EOPN1                     ; OPEN FILE (CHGED 11/1/78)
                ;
                ELD1            EQU          *
2419 a9 23                      LDA          #$23                      ; STRIP UNRELATED STUFF
241b 2d c2 35                   AND          CCBFUC                    ; OUT OF FUC
241e f0 f0                      BEQ          NBPER                     ; BR IF ERROR
                ; ISOLOLATE IB & AS
                ELD2            EQU          *
2420 8d c2 35                   STA          CCBFUC                    ; SAVE IB/AS ONLY
2423 ad b6 2a                   LDA          ASIBSW                    ; IF IB THEN
2426 f0 28                      BEQ          EIBL                      ; GO TO IB LOAD
2428 a9 02                      LDA          #2
242a 20 b1 24                   JSR          LD1                       ; GO OPEN AND TEST
                ;
242d 20 7a 24                   JSR          LD2                       ; GO GET BLOCK LENGTH
                ;
2430 18                         CLC
2431 65 67                      ADC          ASSOP                     ; ADD BLOCK LENGTH TO SOP
2433 aa                         TAX
2434 98                         TYA
2435 65 68                      ADC          ASSOP+1
                ;
2437 c5 74                      CMP          ASHM1+1                   ; IF BL+SOP >= HMEM
2439 b0 70                      BCS          MFULL                     ; THEN WON'T FIT
                ;
                EASL1           EQU          *
243b 85 b0                      STA          ASEOP+1                   ; SET NEW EOP ADR
243d 85 6a                      STA          ASEOP2+1
243f 86 af                      STX          ASEOP
2441 86 69                      STX          ASEOP2
2443 a6 67                      LDX          ASSOP                     ; GET ADR WHERE TO LOAD
2445 a4 68                      LDY          ASSOP+1
2447 20 71 24                   JSR          LD3                       ; GO LOAD
244a 20 51 28                   JSR          MVCSW                     ;RESTORE I/O
244d 6c 60 1d                   JMP          (ASEQ)                    ;RELOC FOR THIS VERSION OF APPLSOFT
                ;
                EIBL            EQU          *
2450 a9 01                      LDA          #1                        ; SET IB PGM
2452 20 b1 24                   JSR          LD1                       ; GO OPEN AND TEST
                ;
2455 20 7a 24                   JSR          LD2                       ; GO GET BLOCK LENGTH
                ;
2458 38                         SEC                                    ; HMEM - BLOCK LENGTH
2459 a5 4c                      LDA          IBHMEM                    ; IS NEW SOP
245b ed 60 2a                   SBC          SVBL
245e aa                         TAX
245f a5 4d                      LDA          IBHMEM+1
2461 ed 61 2a                   SBC          SVBL+1
2464 90 45                      BCC          MFULL
2466 a8                         TAY
                ;
2467 c4 4b                      CPY          IBLMEM+1                  ; IF NEW SOP <= LMEM
2469 90 40                      BCC          MFULL
246b f0 3e                      BEQ          MFULL
246d 84 cb                      STY          IBSOP+1                   ; SET NEW SOP
246f 86 ca                      STX          IBSOP
                LD3             EQU          *
2471 8e c3 35                   STX          CCBBBA                    ; SET BLOCK ADR
2474 8c c4 35                   STY          CCBBBA+1
2477 4c 0a 24                   JMP          GODOS                     ; GET BLOCK & CLOSE
                ;
                LD2             EQU          *
247a ad 0a 1d                   LDA          SVBLA                     ; MOVE ADR OF WHERE
247d 8d c3 35                   STA          CCBBBA                    ; TO PUT DATA TO
2480 ad 0b 1d                   LDA          SVBLA+1                   ; CCBN
2483 8d c4 35                   STA          CCBBBA+1
2486 a9 00                      LDA          #0
2488 8d c2 35                   STA          CCBBLN+1                  ; READ INTO
248b a9 02                      LDA          #2
248d 8d c1 35                   STA          CCBBLN
2490 a9 03                      LDA          #CRQRD                    ; READ
2492 8d bb 35                   STA          CCBREQ
2495 a9 02                      LDA          #CRMNBL                   ; BLOCK
2497 8d bc 35                   STA          CCBRQM
249a 20 a8 26                   JSR          DOSGO
249d ad 61 2a                   LDA          SVBL+1
24a0 8d c2 35                   STA          CCBBLN+1
24a3 a8                         TAY
24a4 ad 60 2a                   LDA          SVBL
24a7 8d c1 35                   STA          CCBBLN
24aa 60                         RTS
                ;
                MFULL           EQU          *
24ab 20 ea 22                   JSR          ECLOSE                    ; GO CLOSE FILE
24ae 4c cc 26                   JMP          MFERR                     ; AND GIVE ERR MSG
                LD1             EQU          *
24b1 cd c2 35                   CMP          CCBFUC                    ; TEST TYPE
24b4 f0 1a                      BEQ          LD1C                      ; BR IF MATCH
24b6 ae 5f 2a                   LDX          CMDNO
24b9 8e 62 2a                   STX          SVCMD
24bc 4a                         LSR          A
24bd f0 03                      BEQ          LD1A                      ; BR IF PGM IS AS
24bf 4c 9e 25                   JMP          EINT                      ; GO FOR INTG BASIC
                ;
                LD1A            EQU          *
24c2 a2 1d                      LDX          #29                       ; SAVE FILE NAME
24c4 bd 75 2a   LD1B            LDA          FNAME1,X                  ; INCASE IS RAM APPLESOFT
24c7 9d 93 2a                   STA          FNAME2,X
24ca ca                         DEX
24cb 10 f7                      BPL          LD1B
24cd 4c 7a 25                   JMP          EAS                       ; GO FOR AS
                ;
24d0 60         LD1C            RTS
                ;;;                PAGE
                ;
                ; ERUN - EXECUTE RUN REQUEST
                ;
                ERUN            EQU          *
24d1 ad b6 2a                   LDA          ASIBSW                    ;IF APPLESOFT THEN RELOC FLAG SET
24d4 f0 03                      BEQ          ERUN0
24d6 8d b7 2a                   STA          RSTATE                    ;INDICATE APSFT RUN
24d9 20 13 24   ERUN0           JSR          ELOAD                     ; LOAD PGM
24dc 20 c8 1f   ERUN1           JSR          PRCRIF                    ;REENTRY POINT FOR ASFT RELOC
24df 20 51 28                   JSR          MVCSW                     ; GO RESTORE CHAR I/O SW
24e2 6c 58 1d                   JMP          (RUN)
                ;
                ; IBRUN - INT BASIC RUN
                ;
                IBRUN           EQU          *
24e5 a5 4a                      LDA          IBLMEM                    ; RESET START OF VARS
24e7 85 cc                      STA          IBSOV
24e9 a5 4b                      LDA          IBLMEM+1
24eb 85 cd                      STA          IBSOV+1
24ed 6c 56 1d                   JMP          (CHAIN)
                ;
                ; EHCAIN - EXECUTE CHAIN REQUEST
                ;
                ECHAIN          EQU          *
24f0 20 16 24                   JSR          ELOAD0                    ; LOAD PGM WITHOUT CLOSING READ FILES
24f3 20 c8 1f                   JSR          PRCRIF
24f6 20 51 28                   JSR          MVCSW                     ; GO RESTORE CHAR I/O SW
24f9 6c 56 1d                   JMP          (CHAIN)
24fc 20 65 d6   ASRUN1          JSR          $D665                     ; ROM
24ff 85 33                      STA          PROMPT                    ;INSURES APPLESOFT RUN DETECT (A=0)
2501 85 d8                      STA          ASONERR                   ;RESET APPLESOFT ONERR FLAG
2503 4c d2 d7                   JMP          $D7D2
2506 20 65 0e   ASRUN2          JSR          $E65                      ; RAM
2509 85 33                      STA          PROMPT                    ;INSURES APPLESOFT RUN DETECT (A=0)
250b 85 d8                      STA          ASONERR                   ;RESET APPLESOFT ONERR FLAG
250d 4c d4 0f                   JMP          $FD4
                
                ; ####################################################################################################
                ; #   END OF FILE:  XLODSAV
                ; #   LINES      :  269
                ; #   CHARACTERS :  12028
                ; #   Formatter  :  Assembly Language Reformatter 1.0.2 (07 January 1998)
                ; ####################################################################################################
                ; ####################################################################################################
                ; #   PROJECT  :  APPLE ][ DOS 3.3 C SOURCE CODE LISTING -- (C) APPLE COMPUTER INC. JULY 1983
                ; #   FILE NAME:  XMISCMD
                ; ####################################################################################################
                
                ;;;                PAGE
                ;
                ; EWRITE - WRITE CMD EXECUTE
                ;
                EWRITE          EQU          *
2510 20 26 25                   JSR          RWPOSN                    ; GO POSITION FILE IF REQD
2513 a9 05                      LDA          #5
2515 8d 52 2a                   STA          OSTATE                    ; SET OSTATE=5
2518 4c 83 1f                   JMP          CERTN                     ; DONE
                ;
                ; EREAD - READ COMD EXECUTE
                ;
                EREAD           EQU          *
251b 20 26 25                   JSR          RWPOSN                    ; GO POSITION FILE IF REQD
251e a9 01                      LDA          #1
2520 8d 51 2a                   STA          ISTATE                    ; SET I STATE = DISK INPUT
2523 4c 83 1f                   JMP          CERTN                     ; DONE
                ;
                ; RWPOSN - POSTION FOR READ/ WRITE
                ;
                RWPOSN          EQU          *
2526 20 64 27                   JSR          FILSRC                    ; FIND THE FILE
2529 90 06                      BCC          RWP1                      ; BR IF FILE FOUND
252b 20 a3 22                   JSR          EOPEN                     ; GO OPEN FOR KLUTZ
252e 4c 34 25                   JMP          RWP2                      ; THEN SKIP NEXT LINE
                RWP1            EQU          *
2531 20 4e 27                   JSR          MVBUFP                    ; MOVE BUFF POINTERS
                RWP2            EQU          *
2534 ad 65 2a                   LDA          INOPTS                    ; GET IN OPTIONS
2537 29 06                      AND          #R+B                      ; WAS IT B OR R
2539 f0 13                      BEQ          RWPR                      ; BR IF NOT
253b a2 03                      LDX          #3
253d bd 6e 2a   RWP2A           LDA          CR,X                      ; MOVE REL REC
2540 9d bd 35                   STA          CCBRRN,X                  ; AND REL BYTE
2543 ca                         DEX
2544 10 f7                      BPL          RWP2A
                RWP3            EQU          *
2546 a9 0a                      LDA          #CRQPOS                   ; INDICATE POISTION REQUEST
2548 8d bb 35                   STA          CCBREQ
254b 20 a8 26                   JSR          DOSGO
254e 60         RWPR            RTS                                    ; DONE
                ;;;                PAGE
                ;
                ;
                ; EINIT - EXECUTE INIT COMMAND
                ;
                EINIT           EQU          *
254f a9 40                      LDA          #V                        ; MUST HAVE
2551 2d 65 2a                   AND          INOPTS                    ; VOL OPTION
2554 f0 05                      BEQ          DFVOL                     ;GO SET DEFAULT VOLUME=254
2556 ad 66 2a                   LDA          CV                        ;CAN'T SPECIFY VOL=0
2559 d0 05                      BNE          EINITA
255b a9 fe      DFVOL           LDA          #$FE                      ;SET DEFAULT VOLUME NUMBER.
255d 8d 66 2a                   STA          CV
2560 ad 0d 1d   EINITA          LDA          ASTART+1
2563 8d bc 35                   STA          CCBBSA
2566 a9 0b                      LDA          #CRQFMT
2568 20 aa 22                   JSR          OPEN
256b 4c 97 23                   JMP          ESAVE
                ;
                ;
                ; ECAT - PRINT CATALOG
                ;
                ECAT            EQU          *
256e a9 06                      LDA          #CRQDIR
2570 20 aa 22                   JSR          OPEN                      ; GO PRETEND OPEN
2573 ad bf 35                   LDA          CCBVOL
2576 8d 66 2a                   STA          CV
2579 60                         RTS
                ;;;                PAGE
                ;
                ; EAS - EXECUTE APPLESOFT REQUEST
                ;
                EAS             EQU          *
257a a9 4c                      LDA          #ATSTV                    ; GET APPLESOFT TEST VALUE
257c 20 b2 25                   JSR          SWTST                     ; GO SWITCH AND TEST
257f f0 2e                      BEQ          GOINIT                    ; BR IF APPLESOFT
2581 a9 00                      LDA          #0
2583 8d b6 2a                   STA          ASIBSW
                ;
                EAS0            EQU          *
2586 a0 1e                      LDY          #30
2588 20 97 20                   JSR          CLRFNA
258b a2 09                      LDX          #FASBL
258d bd b7 2a   EAS1            LDA          FASB-1,X                  ; MOVE SYSTEM FILE NAME
2590 9d 74 2a                   STA          FNAME1-1,X
2593 ca                         DEX
2594 d0 f7                      BNE          EAS1
                ;
                EAS2            EQU          *
2596 a9 c0                      LDA          #$C0
2598 8d 51 2a                   STA          ISTATE                    ; FOR RAM APPLESOFT
259b 4c d1 24                   JMP          ERUN                      ; GO LOAD AND RUN
                ;
                ; EINT - EXECUTE INTEGER REQUEST
                ;
                EINT            EQU          *
259e a9 20                      LDA          #ITSTV                    ; GET IB TEST VALUE
25a0 20 b2 25                   JSR          SWTST                     ; GO SWITCH AND TEST
25a3 f0 05                      BEQ          GOINT                     ;BR IF INTIGER BASIC...
25a5 a9 01                      LDA          #1                        ;LANGUAGE NOT AVIALABLE, TOO BAD...
25a7 4c d2 26                   JMP          ERROR
25aa a9 00      GOINT           LDA          #0                        ;RESET RSTATE
25ac 8d b7 2a                   STA          RSTATE                    ; FOR NON APPLESOFT PROG.
                GOINIT          EQU          *
25af 4c 84 1d                   JMP          DBINIT                    ; GO INIT DOS
                SWTST           EQU          *
25b2 cd 00 e0                   CMP          AITSTL                    ; TEST CURRENT VALUE
25b5 f0 0e                      BEQ          SWTR
25b7 8d 80 c0                   STA          $C080                     ; TRY SWITCH 1
25ba cd 00 e0                   CMP          AITSTL                    ; TEST AGAIN
25bd f0 06                      BEQ          SWTR                      ; BR IF NOW SAME
25bf 8d 81 c0                   STA          $C081                     ; TRY SWITCH 2
25c2 cd 00 e0                   CMP          AITSTL                    ; TEST AND
25c5 60         SWTR            RTS                                    ; RETURN
                ;
                ;;;                PAGE
                ;
                ; EEXEC - EXECUTE EXEC CMD
                ;
                EEXEC           EQU          *
25c6 20 a3 22                   JSR          EOPEN                     ; OPEN FILE
25c9 ad 4f 2a                   LDA          CFTABA                    ; MOVE TABLE POINTERS
25cc 8d b4 2a                   STA          EFTABA
25cf ad 50 2a                   LDA          CFTABA+1
25d2 8d b5 2a                   STA          EFTABA+1
25d5 ad 75 2a                   LDA          FNAME1                    ; USE FILNAME
25d8 8d b3 2a                   STA          ESTATE                    ; SET EX STATE NON ZERO
25db d0 0e                      BNE          EXP2
                ;
                ;
                ; EPOS - EXECUTE POSITION
                ;
                EPOS            EQU          *
25dd 20 64 27                   JSR          FILSRC
25e0 90 06                      BCC          EXP1
25e2 20 a3 22                   JSR          EOPEN
25e5 4c eb 25                   JMP          EXP2
25e8 20 4e 27   EXP1            JSR          MVBUFP
                EXP2            EQU          *
25eb ad 65 2a                   LDA          INOPTS                    ; GET OPTIONS
25ee 29 04                      AND          #R                        ; TEST R
25f0 f0 1b                      BEQ          EX2                       ; BR NOT R
                ;
25f2 ad 6e 2a   EX0             LDA          CR                        ; IF CR NOT ZERO
25f5 d0 08                      BNE          EX1A                      ; THEN DECREMENT
25f7 ae 6f 2a                   LDX          CR+1
25fa f0 11                      BEQ          EX2
25fc ce 6f 2a                   DEC          CR+1
25ff ce 6e 2a   EX1A            DEC          CR
2602 20 8c 26   EX1             JSR          RBYTE                     ; AND READ A RCORD
2605 f0 38                      BEQ          ICFD4
2607 c9 8d                      CMP          #$8D                      ; UNTIL CR
2609 d0 f7                      BNE          EX1
260b f0 e5                      BEQ          EX0                       ; THEN TEST CR AGAIN
                ;
260d 60         EX2             RTS                                    ; DONE
                ;;;                PAGE
                ;
                ; OCTD - OUTPUT A CHAR TO DISK
                ;
                OCTD            EQU          *
260e 20 5e 26                   JSR          TSTRUN                    ; GO TEST RUN
2611 b0 66                      BCS          ICFDB                     ;BRANCH IF NOT RUN MODE
2613 ad 5c 2a                   LDA          SVA                       ; CHAR IN SAVED ACU
2616 8d c3 35                   STA          CCBDAT                    ; PUT INTO CCBDATA AREA
2619 a9 04                      LDA          #CRQWR                    ; SET WRITE
261b 8d bb 35                   STA          CCBREQ
261e a9 01                      LDA          #CRMNBT                   ; SET NEXT BYTE
2620 8d bc 35                   STA          CCBRQM
2623 4c a8 26                   JMP          DOSGO                     ; GO WRITE BYTE
                ;
                ; INCFD - INPUT A CHAR FROM DISK
                ;
                ICFD            EQU          *
2626 20 5e 26                   JSR          TSTRUN                    ; GO TEST RUN
2629 b0 4e                      BCS          ICFDB                     ;BRANCH IF NOT RUN MODE
262b a9 06                      LDA          #6                        ; SET OUT STE = 6
                ICFD3           EQU          *
262d 8d 52 2a                   STA          OSTATE                    ; TO CATCH ECHO
2630 20 8c 26                   JSR          RBYTE
2633 d0 0f                      BNE          ICFD1                     ; BR IF NOT ZERO CHAR
                ICFD2           EQU          *
2635 20 fc 22                   JSR          CLOSE
2638 a9 03                      LDA          #3
263a cd 52 2a                   CMP          OSTATE
263d f0 ce                      BEQ          EX2
                ICFD4           EQU          *
263f a9 05                      LDA          #CREEOF
2641 4c d2 26                   JMP          ERROR                     ; GO TO ERROR
                ICFD1           EQU          *
2644 c9 e0                      CMP          #$E0                      ;CHECK FOR LOWER CASE
2646 90 02                      BCC          ICFNLC                    ;BRANCH IF NOT LOWER-CASE
2648 29 7f                      AND          #$7F                      ;STRIP HI BIT TO FOOL GETLINE
                ICFNLC          EQU          *
264a 8d 5c 2a                   STA          SVA                       ; PUT INTO SAVED ACU
264d ae 5a 2a                   LDX          SVX                       ; MUST CHECK LAST FOR LOWER CASE
2650 f0 09                      BEQ          ICFD0                     ;IGNORE IF FIRST CHAR.
2652 ca                         DEX
2653 bd 00 02                   LDA          LBUFF,X
2656 09 80                      ORA          #$80                      ;RESET HI BIT
2658 9d 00 02                   STA          LBUFF,X                   ; EVEN THOUGH IT MAY NOT NEED IT
                ICFD0           EQU          *
265b 4c b3 1f                   JMP          ORTN                      ; GO RESTORE REGS AND RTS
                ;
265e 48         TSTRUN          PHA
265f ad b6 2a                   LDA          ASIBSW                    ; GET AS/INT BASIC SWITCH
2662 f0 0e                      BEQ          TR1                       ; BR IF INT
2664 a6 76                      LDX          $76                       ;CHECK APPLESOFT RUN FLAG
2666 e8                         INX                                    ;(NOT RUN=0 AFTER INCREMENT)
2667 f0 0d                      BEQ          NOTRUN                    ;IF SAYS RUNNING MAKE SURE WITH PROMPT.
2669 a6 33                      LDX          PROMPT                    ;TEST APPLESOFT RUNNING.
266b e0 dd                      CPX          #']'+$80
266d f0 07                      BEQ          NOTRUN                    ; BR IF NOT RUN
266f 68         TR0             PLA
2670 18                         CLC                                    ;INDICATE PROGRAM RUNNING
2671 60                         RTS
                TR1             EQU          *
2672 a5 d9                      LDA          $D9                       ; GET INT RUN FLAG
2674 30 f9                      BMI          TR0                       ; BR IF RUN
2676 68         NOTRUN          PLA                                    ;INDICATE PROGRAM NOT RUNNING
2677 38                         SEC                                    ; WITH CARRY SET.
2678 60                         RTS
                ;
                ICFDB           EQU          *                         ; NOT RUN MODE
2679 20 fc 22                   JSR          CLOSE                     ; GO CLOSE FILE
267c 20 5b 27                   JSR          CLRSTS                    ; GO CLEAR STATES
267f 4c b3 1f                   JMP          ORTN
                ;;;                PAGE
                ;
                ; NXTEXC - NEXT EXECUTE CHAR
                ;
                NXTEXC          EQU          *
2682 20 9d 26                   JSR          MVEFTA
2685 20 4e 27                   JSR          MVBUFP                    ; GO MOVE PTRS
2688 a9 03                      LDA          #3
268a d0 a1                      BNE          ICFD3
                ;
                ; RBYTE - READ NEXT BYTE
                ;
                RBYTE           EQU          *
268c a9 03                      LDA          #CRQRD                    ; SET READ
268e 8d bb 35                   STA          CCBREQ
2691 a9 01                      LDA          #CRMNBT                   ; SET NEXT BYTE
2693 8d bc 35                   STA          CCBRQM
2696 20 a8 26                   JSR          DOSGO                     ; GO TO DOS
2699 ad c3 35                   LDA          CCBDAT                    ; GET THE DATA BYTE
269c 60                         RTS
                MVEFTA          EQU          *
269d ad b5 2a                   LDA          EFTABA+1                  ; MOVE TABLE ADR
26a0 85 41                      STA          ZPGWRK+1                  ; NO ZPG
26a2 ad b4 2a                   LDA          EFTABA
26a5 85 40                      STA          ZPGWRK
26a7 60                         RTS
                
                ; ####################################################################################################
                ; #   END OF FILE:  XMISCMD
                ; #   LINES      :  254
                ; #   CHARACTERS :  10954
                ; #   Formatter  :  Assembly Language Reformatter 1.0.2 (07 January 1998)
                ; ####################################################################################################
                ; ####################################################################################################
                ; #   PROJECT  :  APPLE ][ DOS 3.3 C SOURCE CODE LISTING -- (C) APPLE COMPUTER INC. JULY 1983
                ; #   FILE NAME:  DOSGOER
                ; ####################################################################################################
                
                ;;;                PAGE
                ;
                ; DOSGO - GOTO DOS
                ;
                DOSGO           EQU          *
26a8 20 06 2b                   JSR          DOSENT                    ; GO TO DOS
26ab 90 16                      BCC          DG3                       ; BR IF NOT ERROR
                ;
26ad ad c5 35                   LDA          CCBSTA                    ;GET RETURN CODE
26b0 c9 05                      CMP          #5
26b2 f0 03                      BEQ          YESEOF
26b4 4c 5e 36                   JMP          CLOSFILE                  ;NO. CLOSE & COMPLAIN
26b7 4c 92 36   YESEOF          JMP          EOFFIX                    ;MABYE FIX IT UP?
26ba ea                         NOP
                ***************************
                *
                * DOS 3.3  (REV B) PATCH
                *
                ***************************
                ;;;                DO           DOS33B
26bb 20 69 3a   DOSGO2A         JSR          MOVEOF                    ; MOVE END OF FILE PATCH
                ;;;                ELSE
                ;;;                NOP
                ;;;DOSGO2A         NOP
                ;;;                NOP
                ;;;                FIN
26be a2 00                      LDX          #0                        ; SET OTHER EIF
26c0 8e c3 35                   STX          CCBDAT                    ; DONE
26c3 60         DG3             RTS
                ;
                ;;;                PAGE
                ;
                ; ERROR ROUTINE
                ;
26c4 a9 0b      ESYNTX          LDA          #CREFLK+1
26c6 d0 0a                      BNE          ERROR
26c8 a9 0c      ENFA            LDA          #CREFLK+2
26ca d0 06                      BNE          ERROR
26cc a9 0e      MFERR           LDA          #CREFLK+4
26ce d0 02                      BNE          ERROR
                ETYP            EQU          *
26d0 a9 0d      ERNU1           LDA          #CREFLK+3
                ;
                ERROR           EQU          *
26d2 8d 5c 2a                   STA          SVA                       ; SAVE MSG NUMBER
26d5 20 e6 3f                   JSR          CLRSTS1                   ;PATCH TO CLR RSTATE TOO (WAS JSR CLRSTS)
26d8 ad b6 2a                   LDA          ASIBSW                    ; GET AS/IN BASIC SWITCH
26db f0 04                      BEQ          ERNAS                     ; BR IF NOT APPLESOFT
26dd a5 d8                      LDA          ASONERR                   ;GET AS ERR FLAG
26df 30 0e                      BMI          ERRTN                     ; BRT IF ON ERR IS GO
                ERNAS           EQU          *
26e1 a2 00                      LDX          #0
26e3 20 02 27                   JSR          EMPR                      ; GO OUTPUT
26e6 ae 5c 2a                   LDX          SVA                       ; GET SAVE MSG
26e9 20 02 27                   JSR          EMPR                      ; GO OUTPUT MSG
26ec 20 c8 1f                   JSR          PRCRIF                    ;OUTPUT A CARRAGE RETURN AFTER MESSAGE
26ef 20 51 28   ERRTN           JSR          MVCSW                     ; GO MOVE CHAR I/ SW
26f2 20 5e 26                   JSR          TSTRUN
26f5 ae 5c 2a                   LDX          SVA
26f8 a9 03                      LDA          #03
26fa b0 03                      BCS          ERRTN1                    ;DON'T GOTO BREAK HANDLER IF NOT RUNNING
26fc 6c 5a 1d                   JMP          (BREAK)
26ff 6c 5e 1d   ERRTN1          JMP          (CONT)                    ;REENTER CONT IF NOT RUN
                ;
                EMPR            EQU          *
2702 bd 3f 2a                   LDA          EMDTB,X                   ; GET ITS DISPL
2705 aa                         TAX                                    ; INTO X
                EMPR1           EQU          *
2706 8e 63 2a                   STX          TEMP1A                    ; SAVE DISPL
2709 bd 71 29                   LDA          EMSG,X                    ; GET MSG CHAR
270c 48                         PHA                                    ; SAVE CHAR
270d 09 80                      ORA          #$80                      ; SET MSB ON
270f 20 c5 1f                   JSR          ORTN1                     ; OUTPUT CHAR
2712 ae 63 2a                   LDX          TEMP1A                    ; GET INDEX
2715 e8                         INX                                    ; INCREMENT IT
2716 68                         PLA                                    ; RE-LOAD CHAR
2717 10 ed                      BPL          EMPR1                     ; BR IF MORE CHARS
2719 60                         RTS                                    ; DONE
                ;;;                PAGE
                ;
                ; OPNSUP - OPEN SET UP
                ;
                OPNSUP          EQU          *
271a ad 66 2a                   LDA          CV                        ; VOLUME
271d 8d bf 35                   STA          CCBVOL
2720 ad 68 2a                   LDA          CD                        ; DRIVE
2723 8d c0 35                   STA          CCBDRV
2726 ad 6a 2a                   LDA          CS                        ; SLOT
2729 8d c1 35                   STA          CCBSLT
272c ad 06 1d                   LDA          FN1ADR                    ; FILENAME 1 ADR
272f 8d c3 35                   STA          CCBFN1
2732 ad 07 1d                   LDA          FN1ADR+1
2735 8d c4 35                   STA          CCBFN1+1
2738 a5 40                      LDA          ZPGWRK
273a 8d 4f 2a                   STA          CFTABA
273d a5 41                      LDA          ZPGWRK+1
273f 8d 50 2a                   STA          CFTABA+1
2742 60                         RTS
                ;
                ; MVFN1 - MOVE FILE NAME 1 TO FILE PTR
                ;
                MVFN1           EQU          *
2743 a0 1d                      LDY          #29
2745 b9 75 2a   MVFN1A          LDA          FNAME1,Y
2748 91 40                      STA          (ZPGWRK),Y
274a 88                         DEY
274b 10 f8                      BPL          MVFN1A
274d 60                         RTS
                ;
                ; MVBUFP - MOVE BUFFER PTRS TO CCB
                ;
                MVBUFP          EQU          *
274e a0 1e                      LDY          #30
2750 b1 40      MVBP1           LDA          (ZPGWRK),Y
2752 99 a9 35                   STA          CCBFCB-30,Y
2755 c8                         INY
2756 c0 26                      CPY          #38
2758 d0 f6                      BNE          MVBP1
275a 60                         RTS
                ;
                ; CLRSTS - CLEAR STATES
                ;
                CLRSTS          EQU          *
275b a0 00                      LDY          #0
275d 8c 51 2a                   STY          ISTATE
2760 8c 52 2a                   STY          OSTATE
2763 60                         RTS
                ;;;                PAGE
                ;
                ; FILSRC - SEARCH FOR FILE NAME1
                ;
                FILSRC          EQU          *
2764 a9 00                      LDA          #0                        ; CLEAR SV AVAIL
2766 85 45                      STA          CNUM+1
                ;
2768 20 92 27                   JSR          TSINIT                    ; GO INIT SEARCH
276b 4c 73 27                   JMP          FLS1A
276e 20 9a 27   FLS1            JSR          TSNXT                     ; LOOK AT NEXT
2771 f0 1d                      BEQ          FLS4                      ; BR IF NO NEXT
                ;
2773 20 aa 27   FLS1A           JSR          TSTOPN                    ; GO TEST OPEN
2776 d0 0a                      BNE          FLS2                      ; BR IF OPEN
                ;
2778 a5 40                      LDA          ZPGWRK                    ; SAVE AVAIL ENTRY ADR
277a 85 44                      STA          CNUM
277c a5 41                      LDA          ZPGWRK+1
277e 85 45                      STA          CNUM+1
2780 d0 ec                      BNE          FLS1                      ; GO LOOK SOME MORE
                ;
2782 a0 1d      FLS2            LDY          #29                       ; FILE HAD 30 CHARS
2784 b1 40      FLS3            LDA          (ZPGWRK),Y                ; GET CHAR
2786 d9 75 2a                   CMP          FNAME1,Y                  ; TEST CHAR
2789 d0 e3                      BNE          FLS1                      ; BR NOT
278b 88                         DEY
278c 10 f6                      BPL          FLS3                      ; LOOK AT 30 CHARS
278e 18                         CLC                                    ; FOUND
278f 60                         RTS                                    ; DONE
                ;
2790 38         FLS4            SEC                                    ; NOT FOUND
2791 60                         RTS                                    ; DONE
                ;;;                PAGE
                ;
                ; TSINIT - INITIALIZE FOR FTAB SEARCH
                ; TSNXT - GET NEXT FTAB ENTRY
                ;
                TSINIT          EQU          *
2792 ad 00 1d                   LDA          FTAB                      ; GET 1ST PTR ADR
2795 ae 01 1d                   LDX          FTAB+1
2798 d0 0a                      BNE          TSST
                TSNXT           EQU          *
279a a0 25                      LDY          #37                       ; GET LINK
279c b1 40                      LDA          (ZPGWRK),Y
279e f0 09                      BEQ          TSR                       ; BR IF NO LINK
                ;
27a0 aa                         TAX
27a1 88                         DEY
27a2 b1 40                      LDA          (ZPGWRK),Y
                TSST            EQU          *
27a4 86 41                      STX          ZPGWRK+1
27a6 85 40                      STA          ZPGWRK
27a8 8a                         TXA                                    ; SET NE CC
27a9 60         TSR             RTS                                    ; RTN
                ;
                ; TSTOPN - TST FOR OPEN FILE
                ;
                TSTOPN          EQU          *
27aa a0 00                      LDY          #0                        ; GET 1ST CHAR OF FN
27ac b1 40                      LDA          (ZPGWRK),Y
27ae 60                         RTS
                ;
                ; TSTEXC - TEST CURRENT FILE FOR EXECUTE
                ;
                TSTEXC          EQU          *
27af ad b3 2a                   LDA          ESTATE                    ; IF ESTATE = 0
27b2 f0 0e                      BEQ          TXC1                      ; THEN NO EXECUTE FILE
27b4 ad b4 2a                   LDA          EFTABA                    ; TEST CURRENT
27b7 c5 40                      CMP          ZPGWRK
27b9 d0 08                      BNE          TXC2                      ; IS NOT
27bb ad b5 2a                   LDA          EFTABA+1
27be c5 41                      CMP          ZPGWRK+1
27c0 f0 01                      BEQ          TXC2                      ; IS
27c2 ca         TXC1            DEX                                    ; IS NOT
27c3 60         TXC2            RTS                                    ; DONE
                ;;;                PAGE
                ;
                ; TSTFUC - TEST FILE USE CODE FOR PGM
                ;
                TSTFUC          EQU          *
27c4 4d c2 35                   EOR          CCBFUC
27c7 f0 0a                      BEQ          TFUCR
27c9 29 7f                      AND          #$7F
27cb f0 06                      BEQ          TFUCR
27cd 20 ea 22                   JSR          ECLOSE                    ; GO CLOSE THE SOB
27d0 4c d0 26                   JMP          ERNU1
27d3 60         TFUCR           RTS
                
                ; ####################################################################################################
                ; #   END OF FILE:  DOSGOER
                ; #   LINES      :  215
                ; #   CHARACTERS :  8197
                ; #   Formatter  :  Assembly Language Reformatter 1.0.2 (07 January 1998)
                ; ####################################################################################################
                ; ####################################################################################################
                ; #   PROJECT  :  APPLE ][ DOS 3.3 C SOURCE CODE LISTING -- (C) APPLE COMPUTER INC. JULY 1983
                ; #   FILE NAME:  BLDFTAB
                ; ####################################################################################################
                
                ;;;                PAGE
                ;
                ; BLDFTB - BUILD FILE TABLES
                ; TABLE MAP:
                ; HIMEM,SOP
                ; SBUFF N (256)
                ; DBUFF N (256)
                ; FTB N (FCBLEN)
                ; HEADER N (38)
                ; .
                ; .
                ; SBUFF 1
                ; DBUFF 1
                ; FTB 1
                ; HEADER 1
                ; THIS PROGRAM
                ;
                ; HEADER MAP:
                ; FILENAME (30)
                ; FTB PTR (2)
                ; DBUF PTR (2)
                ; SBUF PTR (2)
                ; LINK (2)
                ;
                BLDFTB          EQU          *
27d4 38                         SEC
27d5 ad 00 1d                   LDA          FTAB                      ; START OF FTAB AREA
27d8 85 40                      STA          ZPGWRK                    ; IS 1ST FTB PTR
27da ad 01 1d                   LDA          FTAB+1                    ; HEADER
27dd 85 41                      STA          ZPGWRK+1
27df ad 57 2a                   LDA          CNFTBS                    ; MOVE NO FTABS
27e2 8d 63 2a                   STA          TEMP1A                    ; TO TEMP
                ;
27e5 a0 00      BFT1            LDY          #0
27e7 98                         TYA
27e8 91 40                      STA          (ZPGWRK),Y                ; 1ST CHAR FN=0
27ea a0 1e                      LDY          #30                       ; INC Y TO FCB PTR
27ec 38                         SEC
27ed a5 40                      LDA          ZPGWRK                    ; END OF PTR HEADER
27ef e9 2d                      SBC          #FCBLEN                   ; MINUS FTAB LENGTH
27f1 91 40                      STA          (ZPGWRK),Y                ; IS START OF FTB
27f3 48                         PHA                                    ; SAVE LOW ADR BYTE
27f4 a5 41                      LDA          ZPGWRK+1
27f6 e9 00                      SBC          #0
27f8 c8                         INY
27f9 91 40                      STA          (ZPGWRK),Y
27fb aa                         TAX
27fc ca                         DEX                                    ; FTB ADR - 256
27fd 68                         PLA                                    ; IS ADR DIR BUFF
27fe 48                         PHA
27ff c8                         INY
2800 91 40                      STA          (ZPGWRK),Y                ; SET DIR BUF PTR
2802 8a                         TXA
2803 c8                         INY
2804 91 40                      STA          (ZPGWRK),Y
2806 aa                         TAX
2807 ca                         DEX                                    ; DIR BUFF - 256
2808 68                         PLA                                    ; IS SBUFF ADR
2809 48                         PHA
280a c8                         INY
280b 91 40                      STA          (ZPGWRK),Y
280d c8                         INY
280e 8a                         TXA
280f 91 40                      STA          (ZPGWRK),Y
                ;
2811 ce 63 2a                   DEC          TEMP1A                    ; DECREMENT TABLE INDEX
2814 f0 17                      BEQ          BFT2                      ; COUNT AND BR IF DONE
2816 aa                         TAX
2817 68                         PLA
2818 38                         SEC
2819 e9 26                      SBC          #38                       ; SBUFF ADR - 38
281b c8                         INY
281c 91 40                      STA          (ZPGWRK),Y                ; IF ADR OF NEXT TAB
281e 48                         PHA                                    ; WHICH GOES INTO
281f 8a                         TXA                                    ; LINK
2820 e9 00                      SBC          #0
2822 c8                         INY
2823 91 40                      STA          (ZPGWRK),Y
2825 85 41                      STA          ZPGWRK+1                  ; AND INTO ZPGWRK
2827 68                         PLA                                    ; FOR NEXT ENTRY
2828 85 40                      STA          ZPGWRK                    ; BUILD
282a 4c e5 27                   JMP          BFT1                      ; GO BUILD NEXT
                ;
                BFT2            EQU          *
282d 48                         PHA
282e a9 00                      LDA          #0                        ; SET LAST LINK
2830 c8                         INY                                    ; TO ZERO
2831 91 40                      STA          (ZPGWRK),Y
2833 c8                         INY
2834 91 40                      STA          (ZPGWRK),Y
                ;
2836 ad b6 2a                   LDA          ASIBSW                    ; IF IB THEN GO
2839 f0 0b                      BEQ          BFTIB
                ;
283b 68                         PLA                                    ; SET APPLESOFT
283c 85 74                      STA          ASHM1+1                   ; UPPER MEM LIMITS
283e 85 70                      STA          ASHM2+1
2840 68                         PLA
2841 85 73                      STA          ASHM1
2843 85 6f                      STA          ASHM2
2845 60                         RTS
                ;
                BFTIB           EQU          *
2846 68                         PLA                                    ; SET IB
2847 85 4d                      STA          IBHMEM+1                  ; UPPER MEM LIMITS
2849 85 cb                      STA          IBSOP+1
284b 68                         PLA
284c 85 4c                      STA          IBHMEM
284e 85 ca                      STA          IBSOP
2850 60                         RTS
                ;;;                PAGE
                ;
                ; MVISW - MOVE INPUT SWITCH
                ;
                MVCSW           EQU          *
2851 a5 39                      LDA          INSW+1
2853 cd 03 1d                   CMP          CINA+1
2856 f0 12                      BEQ          MVOSW
2858 8d 56 2a                   STA          SVINS+1
285b a5 38                      LDA          INSW                      ; SAVE CHAR IN SWITCH
285d 8d 55 2a                   STA          SVINS
                ;
2860 ad 02 1d                   LDA          CINA                      ; SET DFB CHAR IN ADR
2863 85 38                      STA          INSW
2865 ad 03 1d                   LDA          CINA+1
2868 85 39                      STA          INSW+1
                ;
                ;
                ; MVOSW - MOVE OUTPUT SWITCH
                ;
                MVOSW           EQU          *
286a a5 37                      LDA          OUTSW+1
286c cd 05 1d                   CMP          COUTA+1
286f f0 12                      BEQ          MVSRTN
2871 8d 54 2a                   STA          SVOUTS+1
2874 a5 36                      LDA          OUTSW                     ; SAVE CHAR OUT SWITCH
2876 8d 53 2a                   STA          SVOUTS
                ;
2879 ad 04 1d                   LDA          COUTA                     ; SET DFB CHAR OUT ADR
287c 85 36                      STA          OUTSW
287e ad 05 1d                   LDA          COUTA+1
2881 85 37                      STA          OUTSW+1
                MVSRTN          EQU          *
2883 60                         RTS
                
                ; ####################################################################################################
                ; #   END OF FILE:  BLDFTAB
                ; #   LINES      :  144
                ; #   CHARACTERS :  4908
                ; #   Formatter  :  Assembly Language Reformatter 1.0.2 (07 January 1998)
                ; ####################################################################################################
                ; ####################################################################################################
                ; #   PROJECT  :  APPLE ][ DOS 3.3 C SOURCE CODE LISTING -- (C) APPLE COMPUTER INC. JULY 1983
                ; #   FILE NAME:  CMDTBLS
                ; ####################################################################################################
                
                ;;;                PAGE
                ;
                ; COMMAND NAME TABLE
                ;
                EC1             EQU          *
                CMDNTB          EQU          *
2884 49 4e 49                   DCI          "INIT"
2887 d4
2888 4c 4f 41                   DCI          "LOAD"
288b c4
288c 53 41 56                   DCI          "SAVE"
288f c5
2890 52 55 ce                   DCI          "RUN"
2893 43 48 41                   DCI          "CHAIN"
2896 49 ce
2898 44 45 4c                   DCI          "DELETE"
289b 45 54 c5
289e 4c 4f 43                   DCI          "LOCK"
28a1 cb
28a2 55 4e 4c                   DCI          "UNLOCK"
28a5 4f 43 cb
28a8 43 4c 4f                   DCI          "CLOSE"
28ab 53 c5
28ad 52 45 41                   DCI          "READ"
28b0 c4
28b1 45 58 45                   DCI          "EXEC"
28b4 c3
28b5 57 52 49                   DCI          "WRITE"
28b8 54 c5
28ba 50 4f 53                   DCI          "POSITION"
28bd 49 54 49
28c0 4f ce
28c2 4f 50 45                   DCI          "OPEN"
28c5 ce
28c6 41 50 50                   DCI          "APPEND"
28c9 45 4e c4
28cc 52 45 4e                   DCI          "RENAME"
28cf 41 4d c5
28d2 43 41 54                   DCI          "CATALOG"
28d5 41 4c 4f
28d8 c7
28d9 4d 4f ce                   DCI          "MON"
28dc 4e 4f 4d                   DCI          "NOMON"
28df 4f ce
28e1 50 52 a3                   DCI          "PR#"
28e4 49 4e a3                   DCI          "IN#"
28e7 4d 41 58                   DCI          "MAXFILES"
28ea 46 49 4c
28ed 45 d3
28ef 46 d0                      DCI          "FP"
28f1 49 4e d4                   DCI          "INT"
28f4 42 53 41                   DCI          "BSAVE"
28f7 56 c5
28f9 42 4c 4f                   DCI          "BLOAD"
28fc 41 c4
28fe 42 52 55                   DCI          "BRUN"
2901 ce
2902 56 45 52                   DCI          "VERIFY"
2905 49 46 d9
2908 00                         DFB          0
                ;;;                PAGE
                ;
                ; COMMAND SYNTAX OP EQUATES FOR SYNTAX BYTE ONE
                ;
                NPB             EQU          $80                       ; NO PARMS OK, COMMAND GOES TO BASIC
                NPE             EQU          $40                       ; NO PARMS OK, COMMAND TO EXECUTION RTN
                FN1             EQU          $20                       ; FILE NAME1 REGD
                FN2             EQU          $10                       ; FILE NAME2 REQD
                NUM1            EQU          $08                       ; NUMERIC 0-7 REGD
                NUM2            EQU          $04                       ; NUMERIC 1-10 REQD
                RNONLY          EQU          $02                       ; RUN TIME ONLY FLAG.
                CREFLG          EQU          $01                       ; FLAG TO INDICATE CMDS THAT MAY CREATE FILES
                ;
                ; COMMAND SYNTAX OP EQUATES FOR SYNTAX BYTE TWO
                ;
                V               EQU          $40                       ; VOLUME ALLOWED
                D               EQU          $20                       ; DRIVE ALLOWED
                S               EQU          $10                       ; SLOT ALLOWED
                L               EQU          $08                       ; LENGTH ALLOWED
                R               EQU          $04                       ; RECORD NUMBER ALLOWED
                B               EQU          $02                       ; BYTE NUMBER ALLOWED
                ADR             EQU          $01                       ; ADDRESS
                CIO             EQU          $80                       ; C,I, OR O ALLOWED
                ;
                ; COMMAND SYNTAX TABLE
                ; EACH COMMAND HAS TWO BYTE ENTRY
                ;
                CMDSTB          EQU          *
2909 21 70                      DFB          FN1+CREFLG,V+D+S          ; INIT
290b a0 70                      DFB          NPB+FN1,V+D+S             ; LOAD
290d a1 70                      DFB          NPB+FN1+CREFLG,V+D+S      ; SAVE
290f a0 70                      DFB          NPB+FN1,V+D+S             ; RUN
2911 20 70                      DFB          FN1,V+D+S                 ; CHAIN
2913 20 70                      DFB          FN1,V+D+S                 ; DELETE
2915 20 70                      DFB          FN1,V+D+S                 ; LOCK
2917 20 70                      DFB          FN1,V+D+S                 ; UNLOCK
2919 60 00                      DFB          NPE+FN1,0                 ; CLOSE
291b 22 06                      DFB          FN1+RNONLY,B+R            ; READ
291d 20 74                      DFB          FN1,R+V+D+S               ; EXEC
291f 22 06                      DFB          FN1+RNONLY,B+R            ; WRITE
2921 22 04                      DFB          FN1+RNONLY,R              ; POSITION
2923 23 78                      DFB          FN1+RNONLY+CREFLG,L+V+D+S ; OPEN
2925 22 70                      DFB          FN1+RNONLY,V+D+S          ; APPEND
2927 30 70                      DFB          FN1+FN2,V+D+S             ; RENAME
2929 40 70                      DFB          NPE,V+D+S                 ; CATALOG
292b 40 80                      DFB          NPE,CIO                   ; MONITOR
292d 40 80                      DFB          NPE,CIO                   ; NO MONITOR
292f 08 00                      DFB          NUM1,0                    ; PR#
2931 08 00                      DFB          NUM1,0                    ; IN#
2933 04 00                      DFB          NUM2,0                    ; MAXFILES
2935 40 70                      DFB          NPE,V+D+S                 ; APPLESOFT
2937 40 00                      DFB          NPE,0                     ; INT
2939 21 79                      DFB          FN1+CREFLG,V+D+S+ADR+L    ; BSAVE
293b 20 71                      DFB          FN1,V+D+S+ADR             ; BLOAD
293d 20 71                      DFB          FN1,V+D+S+ADR             ; BRUN
293f 20 70                      DFB          FN1,V+D+S                 ; VERIFY
                ;;;                PAGE
                ;
                ; OPTAB - OPTIONAL PARMS SYNTAX TABLES
                ;
                OPTAB1          EQU          *
2941 d6 c4 d3                   DFB          'V'+$80,'D'+$80,'S'+$80,'L'+$80
2944 cc
2945 d2 c2 c1                   DFB          'R'+$80,'B'+$80,'A'+$80,'C'+$80
2948 c3
2949 c9 cf                      DFB          'I'+$80,'O'+$80
                OPT1L           EQU          *-OPTAB1
                MI              EQU          $20
                MO              EQU          $10
                OPTAB2          EQU          *
294b 40 20 10                   DFB          V,D,S,L
294e 08
294f 04 02 01                   DFB          R,B,ADR,CIO+MC
2952 c0
2953 a0 90                      DFB          CIO+MI,CIO+MO
                OPTAB3          EQU          *
2955 00 00                      DW           0
2957 fe 00                      DW           254                       ; VOL RANGE
2959 01 00                      DW           1
295b 02 00                      DW           2                         ; DRIVE RANGE
295d 01 00                      DW           1
295f 07 00                      DW           7                         ; SLOT RANGE
2961 01 00                      DW           1
2963 ff 7f                      DW           32767                     ; LENGTH RANGE
2965 00 00                      DW           0
2967 ff 7f                      DW           32767                     ; REC NO RANGE
2969 00 00                      DW           0
296b ff 7f                      DW           32767                     ; REC BYTE NO RANGE
296d 00 00                      DW           0
296f ff ff                      DW           $FFFF                     ; ADDRESS RANGE
                ;;;                PAGE
                ;
                ; ERROR MESSAGE TABLES
                ;
                EMSG            EQU          *
2971 0d 07 8d                   DFB          $0D,$07,$8D
                EM1             EQU          *-EMSG
2974 4c 41 4e                   DCI          "LANGUAGE NOT AVAILABLE"
2977 47 55 41
297a 47 45 20
297d 4e 4f 54
2980 20 41 56
2983 41 49 4c
2986 41 42 4c
2989 c5
                EM2             EQU          *-EMSG
                EM3             EQU          *-EMSG
298a 52 41 4e                   DCI          "RANGE ERROR"
298d 47 45 20
2990 45 52 52
2993 4f d2
                EM4             EQU          *-EMSG
2995 57 52 49                   DCI          "WRITE PROTECTED"
2998 54 45 20
299b 50 52 4f
299e 54 45 43
29a1 54 45 c4
                EM5             EQU          *-EMSG
29a4 45 4e 44                   DCI          "END OF DATA"
29a7 20 4f 46
29aa 20 44 41
29ad 54 c1
                EM6             EQU          *-EMSG
29af 46 49 4c                   DCI          "FILE NOT FOUND"
29b2 45 20 4e
29b5 4f 54 20
29b8 46 4f 55
29bb 4e c4
                EM7             EQU          *-EMSG
29bd 56 4f 4c                   DCI          "VOLUME MISMATCH"
29c0 55 4d 45
29c3 20 4d 49
29c6 53 4d 41
29c9 54 43 c8
                EM8             EQU          *-EMSG
29cc 49 2f 4f                   DCI          "I/O ERROR"
29cf 20 45 52
29d2 52 4f d2
                EM9             EQU          *-EMSG
29d5 44 49 53                   DCI          "DISK FULL"
29d8 4b 20 46
29db 55 4c cc
                EM10            EQU          *-EMSG
29de 46 49 4c                   DCI          "FILE LOCKED"
29e1 45 20 4c
29e4 4f 43 4b
29e7 45 c4
                EM11            EQU          *-EMSG
29e9 53 59 4e                   DCI          "SYNTAX ERROR"
29ec 54 41 58
29ef 20 45 52
29f2 52 4f d2
                EM12            EQU          *-EMSG
29f5 4e 4f 20                   DCI          "NO BUFFERS AVAILABLE"
29f8 42 55 46
29fb 46 45 52
29fe 53 20 41
2a01 56 41 49
2a04 4c 41 42
2a07 4c c5
                EM13            EQU          *-EMSG
2a09 46 49 4c                   DCI          "FILE TYPE MISMATCH"
2a0c 45 20 54
2a0f 59 50 45
2a12 20 4d 49
2a15 53 4d 41
2a18 54 43 c8
                EM14            EQU          *-EMSG
2a1b 50 52 4f                   DCI          "PROGRAM TOO LARGE"
2a1e 47 52 41
2a21 4d 20 54
2a24 4f 4f 20
2a27 4c 41 52
2a2a 47 c5
                ;
                EM15            EQU          *-EMSG
2a2c 4e 4f 54                   DCI          "NOT DIRECT COMMAND"
2a2f 20 44 49
2a32 52 45 43
2a35 54 20 43
2a38 4f 4d 4d
2a3b 41 4e c4
2a3e 8d                         DFB          $8D
                EMDTB           EQU          *
2a3f 00 03 19                   DFB          0,EM1,EM2,EM3
2a42 19
2a43 24 33 3e                   DFB          EM4,EM5,EM6,EM7
2a46 4c
2a47 5b 64 6d                   DFB          EM8,EM9,EM10,EM11
2a4a 78
2a4b 84 98 aa                   DFB          EM12,EM13,EM14
2a4e bb                         DFB          EM15
                
                ; ####################################################################################################
                ; #   END OF FILE:  CMDTBLS
                ; #   LINES      :  164
                ; #   CHARACTERS :  7084
                ; #   Formatter  :  Assembly Language Reformatter 1.0.2 (07 January 1998)
                ; ####################################################################################################
                ; ####################################################################################################
                ; #   PROJECT  :  APPLE ][ DOS 3.3 C SOURCE CODE LISTING -- (C) APPLE COMPUTER INC. JULY 1983
                ; #   FILE NAME:  FDOSENT
                ; ####################################################################################################
                
                ;;;                PAGE
                ;
                ; MISC BUT REQD CELLS
                ;
2a4f 00 00      CFTABA          DDB          0                         ; CURRENT FILE TABLE POINTER
2a51 00         ISTATE          DFB          0                         ; INPUT STATE
2a52 00         OSTATE          DFB          0                         ; OUTPUT STATE
2a53 00 00      SVOUTS          DDB          0                         ; SAVED OUT SWITCH
2a55 00 00      SVINS           DDB          0                         ; SAVED IN SWITCH
2a57 00         CNFTBS          DFB          0                         ; CURRENT NO FILE TABLES
2a58 03         DFNFTB          DFB          3                         ; DEFAULT NO FILE TABLES
2a59 00         SVSTK           DFB          0                         ; SAVED STACK PTR
2a5a 00         SVX             DFB          0                         ; DSAVED X REG
2a5b 00         SVY             DFB          0                         ; SAVED Y REG
2a5c 00         SVA             DFB          0                         ; SAVED ACU
2a5d 00         LBUFD           DFB          0                         ; LINE BUFF DISPL
2a5e 00         MONMOD          DFB          0                         ; MONITOR MODE BITS
                MC              EQU          $40                       ; MONITOR CMDS
                *MI EQU $20  ; MONITOR INPUT
                *MO EQU $10  ; MONITOR OUTPUT
2a5f 00         CMDNO           DFB          $00                       ; COMMAND NO IS ZERO FOR BOOT UP
2a60 00 00      SVBL            DFB          0,0
2a62 00         SVCMD           DFB          0
2a63 00         TEMP1A          DFB          0
2a64 00         TEMP2A          DFB          0
2a65 00         INOPTS          DFB          0                         ; INPUT OPTIONS
                CUROPT          EQU          *                         ; CURRENT OPTIONS
2a66 00 00      CV              DW           0                         ; VOLUME
2a68 00 00      CD              DW           0                         ; DRIVE
2a6a 00 00      CS              DW           0                         ; SLOT
2a6c 01 00      CL              DW           1                         ; RECORD LENGTH
2a6e 00 00      CR              DW           0                         ; RECORD NUMBER
2a70 00 00      CB              DW           0                         ; RECORD BYTE
2a72 00 00      CA              DW           0                         ; ADDRESS
2a74 00         IMBITS          DFB          0
                ;;;                MSB          ON
2a75 c8 c5 cc   FNAME1          ASC          "HELLO                         " ; FILENAME 1"
2a78 cc cf a0
2a7b a0 a0 a0
2a7e a0 a0 a0
2a81 a0 a0 a0
2a84 a0 a0 a0
2a87 a0 a0 a0
2a8a a0 a0 a0
2a8d a0 a0 a0
2a90 a0 a0 a0
                ;;;                MSB          OFF
2a93 a0 a0 a0   FNAME2          DS           30,$A0                    ;FILENAME 2
2a96 a0 a0 a0
2a99 a0 a0 a0
2a9c a0 a0 a0
2a9f a0 a0 a0
2aa2 a0 a0 a0
2aa5 a0 a0 a0
2aa8 a0 a0 a0
2aab a0 a0 a0
2aae a0 a0 a0
2ab1 03         DFNFTS          DFB          3                         ; DEFAULT FILE TABLES = 3
2ab2 84         CCHAR           DFB          $84                       ; CONTROL CHAR
2ab3 00         ESTATE          DFB          0                         ; EXECUTE STATE
2ab4 00 00      EFTABA          DFB          0,0                       ; EXECUTE FILE TABLE POINTER
2ab6 00         ASIBSW          DFB          0                         ; APPLESOFT, IB SWITCH
2ab7 00         RSTATE          DFB          0                         ;FOR APPLESOFT RUN PROGRAM AFTER RELOC
2ab8 c1 d0 d0   FASB            DFB          $C1,$D0,$D0,$CC           ;'APPLESOFT' WITH BIT 7 HIGH
2abb cc
2abc c5 d3 cf                   DFB          $C5,$D3,$CF,$C6
2abf c6
2ac0 d4                         DFB          $D4
                FASBL           EQU          *-FASB
                ;;;                PAGE
                ;
                ; DOS ADR TABLES (RELOCATED)
                ;
                SAT2            EQU          *
2ac1 e8 37      AIOB            DW           IOB                       ; 5-ADR IOB
2ac3 bb 33      AVTOC           DW           VTOC                      ; 6-ADR VTOC
2ac5 bb 34      AVOLDR          DW           VOLDIR                    ; 7-ADR VOLDIR
2ac7 00 40      AEND            DW           ENDOFDOS                  ;END OF DOS
                ;
2ac9 7e 33      CMDVT           DW           GOODIO-1                  ; 0-NULL
2acb 21 2b                      DW           FOPEN-1                   ; 1-OPEN FILE
2acd 05 2c                      DW           FCLOSE-1                  ; 2-CLOSE FILE
2acf 57 2c                      DW           FREAD-1                   ; 3-READ DATA
2ad1 6f 2c                      DW           FWRITE-1                  ; 4-WRITE DATA
2ad3 2a 2d                      DW           FDEL-1                    ; 5-DELETE FILE
2ad5 97 2d                      DW           RDIR-1                    ; 6-READ DIRECTORY
2ad7 ee 2c                      DW           FLOCK-1                   ; 7-LOCK A FILE
2ad9 f5 2c                      DW           FUNLCK-1                  ; 8-UNLOCK A FILE
2adb 39 2c                      DW           FRNME-1                   ; 9-RENAME
2add 11 2d                      DW           FPOSTN-1                  ; 10-POSITION A FILE
2adf 8d 2e                      DW           FFMT-1                    ; FORMAT
2ae1 17 2d                      DW           FVAR-1                    ; VARIFY
2ae3 7e 33                      DW           GOODIO-1                  ; 11-SPARE
                ;
                RVT             EQU          *
2ae5 7e 33                      DW           GOODIO-1
2ae7 89 2c                      DW           RNXBYT-1                  ; 1-RD NEXT BYTE
2ae9 95 2c                      DW           RNXBLK-1                  ; 1-RD NEXT BLOCK
2aeb 86 2c                      DW           RSPBYT-1                  ; 2-RD SPECIFIC BYTE
2aed 92 2c                      DW           RSPBLK-1                  ; 3 - RD SPECIFIC BLOCK
2aef 7e 33                      DW           GOODIO-1                  ; 4 - SPARE
                ;
                WVT             EQU          *
2af1 7e 33                      DW           GOODIO-1
2af3 bd 2c                      DW           WNXBYT-1                  ; 1-WR NEXT BYTE
2af5 c9 2c                      DW           WNXBLK-1                  ; WR NEXT BLOCK
2af7 ba 2c                      DW           WSPBYT-1                  ; 2-WR SPECIFIC BYTE
2af9 c6 2c                      DW           WSPBLK-1                  ; 3-WR SPECIFIC BLOCK
2afb 7e 33                      DW           GOODIO-1                  ; 4 - SPARE
                EAT2            EQU          *
                ;;;                PAGE
                ;
                ; USERENT - DOS EXTERNAL ENTRY POINT (USER ENTRY)
                ; ENTRY PARM:
                ;  A= HIGH ADDRESS OF CCB
                ;  Y= LOW ADDRESS OF CCB
                ;  X= 0 IF CREATE DESIRED
                ;  X> 0 IF CREATE NOT DESIRED
                ; EXIT PARM:
                ;  CARRY CLEAR = OPERATION OK
                ;  CARRY SET = ERROR
                ;
                SC2             EQU          *
2afd e0 00      USERENT         CPX          #0                        ;IF X=0 THEN FILE ENTRY CREATED IF NOT
2aff f0 02                      BEQ          USRCR                     ; FOUND. NOTE: FILE NOT FOUND ERROR STILL IS RETURNED
2b01 a2 02                      LDX          #2                        ;INDICATE NO CREATE ALLOWED
2b03 8e 5f 2a   USRCR           STX          CMDNO                     ;SET UP FOR CREATE CAPIBILITY
                DOSENT          EQU          *
2b06 ba                         TSX
2b07 8e 9b 33                   STX          ENTSTK
2b0a 20 6a 2e                   JSR          CLCFCB                    ; GO CALCULATE FCB
2b0d ad bb 35                   LDA          CCBREQ                    ; GET REQUEST
2b10 c9 0d                      CMP          #CRQMAX                   ; TTEST REQ RANGE
2b12 b0 0b                      BCS          ERR2                      ; BR OUT OF RANGE
2b14 0a                         ASL          A                         ; REQ CODE *2
2b15 aa                         TAX
2b16 bd ca 2a                   LDA          CMDVT+1,X                 ; PUSH ADR ONTO STACK
2b19 48                         PHA
2b1a bd c9 2a                   LDA          CMDVT,X
2b1d 48                         PHA
2b1e 60         DENRTS          RTS
2b1f 4c 63 33   ERR2            JMP          ERROR2
                
                ; ####################################################################################################
                ; #   END OF FILE:  FDOSENT
                ; #   LINES      :  122
                ; #   CHARACTERS :  6315
                ; #   Formatter  :  Assembly Language Reformatter 1.0.2 (07 January 1998)
                ; ####################################################################################################
                ; ####################################################################################################
                ; #   PROJECT  :  APPLE ][ DOS 3.3 C SOURCE CODE LISTING -- (C) APPLE COMPUTER INC. JULY 1983
                ; #   FILE NAME:  FOPCLRW
                ; ####################################################################################################
                
                ;;;                PAGE
                ;
                ; FOPEN - OPEN A FILE
                ;
                FOPEN           EQU          *
2b22 20 28 2b                   JSR          DOPEN
2b25 4c 7f 33                   JMP          GOODIO
                ;
                DOPEN           EQU          *
                ;
2b28 20 dc 2b                   JSR          DCBSUP
                ;
                ;
2b2b a9 01                      LDA          #1
2b2d 8d e3 35                   STA          DCBSDL+1
2b30 ae be 35                   LDX          CCBRLN+1                  ; MOVE RECORD LENGTH
2b33 ad bd 35                   LDA          CCBRLN
2b36 d0 05                      BNE          F02
2b38 e0 00                      CPX          #0
2b3a d0 01                      BNE          F02
2b3c e8                         INX                                    ; SET RL=256
2b3d 8d e8 35   F02             STA          DCBRCL
2b40 8e e9 35                   STX          DCBRCL+1
                ;
2b43 20 c9 31                   JSR          FNDFIL                    ; GO FIND FILE
2b46 90 5e                      BCC          F03                       ; BR IF FOUND
                ;
                *  CREATE FILE IF COMMAND IS SAVE, OPEN, OR BSAVE
                ;
2b48 8e 9c 33                   STX          TEMP1                     ; SAVE DIR. INDEX.
2b4b ae 5f 2a                   LDX          CMDNO                     ;TEST COMMAND FOR CREATE FLAG.
2b4e bd 09 29                   LDA          CMDSTB,X                  ; (BIT 0 MUST=1)
2b51 ae 9c 33                   LDX          TEMP1                     ;RESTORE DIR INDEX
2b54 4a                         LSR          A                         ;SHIFT CREFLG BIT TO CARRY
2b55 b0 0d                      BCS          F02B                      ;BRANCH ON VALID INSTR.
2b57 ad 51 2a                   LDA          ISTATE                    ;FIND OUT IF TRYING TO LOAD APPLESOFT
2b5a c9 c0                      CMP          #$C0
2b5c d0 03                      BNE          F02A                      ;NO GO
2b5e 4c 5f 33                   JMP          ERROR1
2b61 4c 73 33   F02A            JMP          ERROR6                    ;PRINT "FILE NOT FOUND" MESSAGE.
2b64 a9 00      F02B            LDA          #0
2b66 9d e8 34                   STA          VDFILE+34,X
2b69 a9 01                      LDA          #1
2b6b 9d e7 34                   STA          VDFILE+33,X
2b6e 8e 9c 33                   STX          TEMP1                     ; SAVE VDIR INDEX
2b71 20 44 32                   JSR          GETSEC                    ; GO ALLOCATE SECTOR
2b74 ae 9c 33                   LDX          TEMP1
2b77 9d c7 34                   STA          VDFILE+1,X                ; PUT SECTOR INTO VDIR
2b7a 8d d2 35                   STA          DCBFDS                    ; PUT SECTOR AS 1ST FILE DIR
2b7d 8d d4 35                   STA          DCBCDS                    ; PUT SECTOR AS CURRENT FILE DIR
                ;
2b80 ad f1 35                   LDA          DCBATK                    ; GET ALLOCATED TRACK
2b83 9d c6 34                   STA          VDFILE,X                  ; PUT INTO VDIR
2b86 8d d1 35                   STA          DCBFDT                    ; AND AS 1ST FILE DIR
2b89 8d d3 35                   STA          DCBCDT                    ; AND AS CURRENT FILE DIR
                ;
2b8c ad c2 35                   LDA          CCBFUC                    ; SET USE CODE
2b8f 9d c8 34                   STA          VDFILE+2,X                ; INTO DIRECTORY
                ;
2b92 20 37 30                   JSR          WRVDIR                    ; GO WRITE VOL DIRECTORY
                ;
2b95 20 0c 2f                   JSR          MVFCBD                    ; MOVE FILE DIR ADR TO ZP
2b98 20 d6 37                   JSR          CLRSEC                    ; GO CLEAR IT
2b9b 20 3a 2f                   JSR          WRFDGO                    ; GO WRITE FILE DIRECTORY
                ; DONE CREATION
2b9e ae 9c 33                   LDX          TEMP1                     ; RE-GET INDEX
2ba1 a9 06                      LDA          #CREFNF
2ba3 8d c5 35                   STA          CCBSTA
                ;
                F03             EQU          *
2ba6 bd c6 34                   LDA          VDFILE,X                  ; MOVE FILE DIR TRACK
2ba9 8d d1 35                   STA          DCBFDT
2bac bd c7 34                   LDA          VDFILE+1,X                ; MOVE FILE DIR SECTOR
2baf 8d d2 35                   STA          DCBFDS
2bb2 bd c8 34                   LDA          VDFILE+2,X                ; 7OVE FILE USE CODE
2bb5 8d c2 35                   STA          CCBFUC
2bb8 8d f6 35                   STA          DCBFUC
2bbb bd e7 34                   LDA          VDFILE+33,X
2bbe 8d ee 35                   STA          DCBNSA
2bc1 bd e8 34                   LDA          VDFILE+34,X
2bc4 8d ef 35                   STA          DCBNSA+1
2bc7 8e d9 35                   STX          DCBVDI                    ;SAVE DIRECTORY INDEX
                ;
2bca a9 ff                      LDA          #255                      ; INDICATE NO SECTOR
2bcc 8d e0 35                   STA          DCBCMS                    ; IN MEMORY
2bcf 8d e1 35                   STA          DCBCMS+1
2bd2 ad e2 33                   LDA          VTDMS                     ; MOVE MAX FD SECTS
2bd5 8d da 35                   STA          DCBDMS                    ; TO DCB
2bd8 18                         CLC
2bd9 4c 5e 2f                   JMP          RDFDIR                    ; READ 1ST DIRECTORY RECORD
                ;
                ;
                ;
                ;
                DCBSUP          EQU          *
2bdc a9 00                      LDA          #0
2bde aa                         TAX
2bdf 9d d1 35   F01             STA          FCBDCB,X                  ; CLEAR DCB
2be2 e8                         INX
2be3 e0 2d                      CPX          #DCBLEN
2be5 d0 f8                      BNE          F01
                ;
2be7 ad bf 35                   LDA          CCBVOL                    ; MOVE VOL
2bea 49 ff                      EOR          #$FF                      ; INVERT VOL BITS
2bec 8d f9 35                   STA          DCBVOL
2bef ad c0 35                   LDA          CCBDRV                    ; MOVE DRIVE
2bf2 8d f8 35                   STA          DCBDRV
2bf5 ad c1 35                   LDA          CCBSLT                    ; GET USER SPEC SLOT
2bf8 0a                         ASL          A                         ; SLOT*16
2bf9 0a                         ASL          A
2bfa 0a                         ASL          A
2bfb 0a                         ASL          A
2bfc aa                         TAX
                F01A            EQU          *
2bfd 8e f7 35                   STX          DCBSLT
2c00 a9 11                      LDA          #17
2c02 8d fa 35                   STA          DCBVTN
2c05 60                         RTS
                ;;;                PAGE
                ;
                ; FCLOSE - CLOSE A FILE
                ;
                FCLOSE          EQU          *
2c06 20 1d 2f                   JSR          WRSECT                    ; WRITE OPEN SECTOR
2c09 20 34 2f                   JSR          WRFDIR                    ; GO WRITE FILE DIRECTORY
2c0c 20 c3 32                   JSR          FRETRK                    ; FREE UNUSED SECTORS
2c0f a9 02                      LDA          #IBCWTS
2c11 2d d5 35                   AND          DCBWRF
2c14 f0 21                      BEQ          FC2
                ;
2c16 20 f7 2f                   JSR          RDVTOC                    ; READ VTOC
2c19 a9 00                      LDA          #0
2c1b 18                         CLC
                FC1             EQU          *
2c1c 20 11 30                   JSR          RDVDIR                    ; READ VDIR
2c1f 38                         SEC
2c20 ce d8 35                   DEC          DCBVDR
2c23 d0 f7                      BNE          FC1                       ; BR IF NOT
2c25 ae d9 35                   LDX          DCBVDI                    ; GET FILES INDEX
2c28 ad ee 35                   LDA          DCBNSA                    ; MOVE NO SECTORS ALLOCATED
2c2b 9d e7 34                   STA          VDFILE+33,X
2c2e ad ef 35                   LDA          DCBNSA+1
2c31 9d e8 34                   STA          VDFILE+34,X
2c34 20 37 30                   JSR          WRVDIR                    ; WRITE VOL DIR REC
                ;
                ;
                FC2             EQU          *
2c37 4c 7f 33                   JMP          GOODIO                    ; DONE
                ;;;                PAGE
                ;
                *   FRNME - RENAME A FILE
                ;
                FRNME           EQU          *
2c3a 20 28 2b                   JSR          DOPEN                     ; GO OPEN FILE
2c3d ad f6 35                   LDA          DCBFUC                    ; GET USE CODE
2c40 30 2b                      BMI          ER10                      ; BR IF LOCKED
2c42 ad bd 35                   LDA          CCBFN2                    ; MOVE NEW FN
2c45 85 42                      STA          ZPGFCB                    ; PTR TO ZPG
2c47 ad be 35                   LDA          CCBFN2+1
2c4a 85 43                      STA          ZPGFCB+1
2c4c ae 9c 33                   LDX          TEMP1                     ; GET VDIR INDEX
2c4f 20 1c 32                   JSR          MVFN                      ; GO MOVE FILE NAME
2c52 20 37 30                   JSR          WRVDIR                    ; GO WRITE VDIR
2c55 4c 7f 33                   JMP          GOODIO                    ; DONE RENAME
                ;;;                PAGE
                ;
                *   FREAD - READ A FILE
                ;
                FREAD           EQU          *
                ;
2c58 ad bc 35                   LDA          CCBRQM                    ; GET REQ MOD
2c5b c9 05                      CMP          #CRMMAX                   ; TEST LIMIT
2c5d b0 0b                      BCS          ERR3A                     ; BR BAD
                ;
2c5f 0a                         ASL          A                         ; CODE*2
2c60 aa                         TAX
2c61 bd e6 2a                   LDA          RVT+1,X                   ; GET READ ROUTINE
2c64 48                         PHA                                    ; VECTOR ADR
2c65 bd e5 2a                   LDA          RVT,X
2c68 48                         PHA                                    ; AND
2c69 60                         RTS                                    ; GO TO IT
                ;
2c6a 4c 67 33   ERR3A           JMP          ERROR3
2c6d 4c 7b 33   ER10            JMP          ERRR10
                ;
                *   FWRITE - WRITE A FILE
                ;
                FWRITE          EQU          *
2c70 ad f6 35                   LDA          DCBFUC                    ; IS FILE LOCKED
2c73 30 f8                      BMI          ER10                      ; BR IF LOCKED
2c75 ad bc 35                   LDA          CCBRQM                    ; GET REQ MOD
2c78 c9 05                      CMP          #CRMMAX                   ; IN RANGE
2c7a b0 ee                      BCS          ERR3A                     ; BR IF NOT IN RANGE
                ;
2c7c 0a                         ASL          A
2c7d aa                         TAX
2c7e bd f2 2a                   LDA          WVT+1,X                   ; GET ROUTINE ADR
2c81 48                         PHA
2c82 bd f1 2a                   LDA          WVT,X
2c85 48                         PHA
2c86 60                         RTS                                    ; AND GO TO IT
                ;;;                PAGE
                ;
                *   RSPBYT - READ A SPECIFIC BYTE
                ;
                RSPBYT          EQU          *
2c87 20 00 33                   JSR          LOCSEC                    ; GO GET REQD REL SECTOR
                ;
                *   RNXBYT - READ NEXT BYTE
                ;
2c8a 20 a8 2c   RNXBYT          JSR          GETBYT                    ; GO GET BYTE
2c8d 8d c3 35                   STA          CCBDAT                    ; PUT IN CCB
2c90 4c 7f 33                   JMP          GOODIO                    ; DONE
                ;
                *   RSPBLK - READ A SPECIFIC BLOCK
                ;
2c93 20 00 33   RSPBLK          JSR          LOCSEC                    ; GO LOCATE REL SECTOR
                ;
                *   RNXBLK - READ NEXT BLOCK
                ;
                RNXBLK          EQU          *
2c96 20 b5 31                   JSR          DTBLN                     ; GO DECR LEN (NOT RTN IF=0)
2c99 20 a8 2c                   JSR          GETBYT                    ; GO GET BYTE
2c9c 48                         PHA
2c9d 20 a2 31                   JSR          MIBDA                     ; GO MOVE BLOCK ADR AND INCR
2ca0 a0 00                      LDY          #0
2ca2 68                         PLA
2ca3 91 42                      STA          (ZPGFCB),Y                ; SET DATA BYTE
2ca5 4c 96 2c                   JMP          RNXBLK                    ; GO FOR NEXT BYTE
                ;
                *   GETBYT - GET A DATA BYTE
                ;
                GETBYT          EQU          *
2ca8 20 b6 30                   JSR          LOCNXB                    ; LOCATE NEXT BYTE
2cab b0 0b                      BCS          EOFIN                     ; BR IF EOF
2cad b1 42                      LDA          (ZPGFCB),Y                ; GET DAT BYTE
2caf 48                         PHA                                    ; SAVE IT
2cb0 20 5b 31                   JSR          INCRRB                    ; INCR REC BYTE
2cb3 20 94 31                   JSR          INCSCB                    ; INCR SEC BYTE
2cb6 68                         PLA                                    ; GET SAVED BYTE
2cb7 60                         RTS                                    ; RETURN
                ;
2cb8 4c 6f 33   EOFIN           JMP          ERROR5                    ; GO TO EOF RTN
                ;;;                PAGE
                ;
                *   WSPBYT - WRITE SPECIFIC BYTE
                ;
                WSPBYT          EQU          *
2cbb 20 00 33                   JSR          LOCSEC                    ; GO LOCATE SECTOR
                ;
                *   WNXBYT - WRITE NEXT BYTE
                ;
                WNXBYT          EQU          *
2cbe ad c3 35                   LDA          CCBDAT                    ; GET THE BYTE
2cc1 20 da 2c                   JSR          PUTBYT                    ; GO WRITE BYTE
2cc4 4c 7f 33                   JMP          GOODIO                    ; DONE
                ;
                *   WSPBLK - WRITE A SPECIFIC BLOCK
                ;
                WSPBLK          EQU          *
2cc7 20 00 33                   JSR          LOCSEC                    ; GO LOCATE SECTOR
                ;
                *   WNXBLK - WRITE NEXT BLOCK
                ;
                WNXBLK          EQU          *
2cca 20 a2 31                   JSR          MIBDA                     ; GO MOVE ADR TO ZPG AND DEC
2ccd a0 00                      LDY          #0
2ccf b1 42                      LDA          (ZPGFCB),Y                ; GET DATA BYTE
2cd1 20 da 2c                   JSR          PUTBYT                    ; GO PUT IT
2cd4 20 b5 31                   JSR          DTBLN                     ; GO DEC BLK LEN (NOT RTN IF = 0)
2cd7 4c ca 2c                   JMP          WNXBLK
                ;
                *   PUTBYT - PUT OUT ONE BYTE
                ;
                PUTBYT          EQU          *
2cda 48                         PHA                                    ; SAVE DATA BYTE
2cdb 20 b6 30                   JSR          LOCNXB                    ; GO LOCATE NEXT BYTE
                ;
2cde 68         PB0             PLA                                    ; GET SAVED BYTE
2cdf 91 42                      STA          (ZPGFCB),Y                ; PUT THE BYTE
2ce1 a9 40                      LDA          #$40                      ; SET WRITE SECTOR REQD
2ce3 0d d5 35                   ORA          DCBWRF
2ce6 8d d5 35                   STA          DCBWRF
                ;
2ce9 20 5b 31                   JSR          INCRRB                    ; INCR REL REC BYTE
2cec 4c 94 31                   JMP          INCSCB                    ; INCR SECTOR BYTE
                
                ; ####################################################################################################
                ; #   END OF FILE:  FOPCLRW
                ; #   LINES      :  286
                ; #   CHARACTERS :  11685
                ; #   Formatter  :  Assembly Language Reformatter 1.0.2 (07 January 1998)
                ; ####################################################################################################
                ; ####################################################################################################
                ; #   PROJECT  :  APPLE ][ DOS 3.3 C SOURCE CODE LISTING -- (C) APPLE COMPUTER INC. JULY 1983
                ; #   FILE NAME:  FDELCAT
                ; ####################################################################################################
                
                ;;;                PAGE
                ;
                *   FLOCK - LOCK A FILE
                ;
2cef a9 80      FLOCK           LDA          #$80                      ; REMEMBER LOCK
2cf1 8d 9e 33                   STA          TEMP3
2cf4 d0 05                      BNE          LCKGO
                ;
                *   FUNLCK - UNLOCK A FILE
                ;
2cf6 a9 00      FUNLCK          LDA          #00                       ; REMEMBER UNLOCK
2cf8 8d 9e 33                   STA          TEMP3
                ;
                LCKGO           EQU          *
                ;
2cfb 20 28 2b                   JSR          DOPEN                     ; GO OPEN FILE
2cfe ae 9c 33                   LDX          TEMP1
2d01 bd c8 34                   LDA          VDFILE+2,X                ; GET FILE USE CODE
2d04 29 7f                      AND          #$7F                      ; TURN OFF LOCK
2d06 0d 9e 33                   ORA          TEMP3
2d09 9d c8 34                   STA          VDFILE+2,X
2d0c 20 37 30                   JSR          WRVDIR
2d0f 4c 7f 33   GOGOOD          JMP          GOODIO
                ;
                *   FPOSTN - POSITION A FILE
2d12 20 00 33   FPOSTN          JSR          LOCSEC                    ; GO POSITION
2d15 4c 7f 33                   JMP          GOODIO                    ; DONE
                ;
                ;
                *   FVAR - VARIFY A FILE
                ;
                FVAR            EQU          *
2d18 20 28 2b                   JSR          DOPEN                     ; OPEN FILE
2d1b 20 b6 30   VAR1            JSR          LOCNXB                    ; READ A SECTOR
2d1e b0 ef                      BCS          GOGOOD                    ; BR IF EOF
2d20 ee e4 35                   INC          DCBCRS                    ; INCREMENT SECTOR
2d23 d0 f6                      BNE          VAR1
2d25 ee e5 35                   INC          DCBCRS+1
2d28 4c 1b 2d                   JMP          VAR1                      ; READ THIS ONE
                ;;;                PAGE
                ;
                *   FDEL - DELETE A FILE
                ;
                FDEL            EQU          *
2d2b 20 28 2b                   JSR          DOPEN                     ; GO OPEN FILE
                ;
2d2e ae 9c 33   FD2             LDX          TEMP1                     ; SAVED INDEX
2d31 bd c8 34                   LDA          VDFILE+2,X                ; IS FILE LOCKED
2d34 10 03                      BPL          FD3                       ; BR NOT LOCKED
2d36 4c 7b 33                   JMP          ERRR10
                ;
                FD3             EQU          *
2d39 ae 9c 33                   LDX          TEMP1                     ; GET SAVED INDEX
2d3c bd c6 34                   LDA          VDFILE,X                  ; GET DIR TRACK
2d3f 8d d1 35                   STA          DCBFDT                    ; SET AS 1ST FD TRACK
2d42 9d e6 34                   STA          VDFILE+32,X               ; SAVE IN LC OF FN
2d45 a9 ff                      LDA          #$FF                      ; DELETED FILE MARKER
2d47 9d c6 34                   STA          VDFILE,X                  ; CLEAR ENTRY
2d4a bc c7 34                   LDY          VDFILE+1,X                ; GET DIR SECTOR
2d4d 8c d2 35                   STY          DCBFDS                    ; SET AS 1ST FD SEC
2d50 20 37 30                   JSR          WRVDIR                    ; GO WRITE VOLUME DIR
2d53 18                         CLC
2d54 20 5e 2f   FD4             JSR          RDFDIR                    ; GET 1ST FILE DIR SECTOR
2d57 b0 2a                      BCS          FD7                       ; BR IF NO MORE
2d59 20 0c 2f                   JSR          MVFCBD                    ; MOVE DIR TO ZPG
2d5c a0 0c                      LDY          #FDENT                    ; POINT Y TO 1ST SEC ENT
2d5e 8c 9c 33   FD5             STY          TEMP1                     ; SAVE Y
2d61 b1 42                      LDA          (ZPGFCB),Y                ; GET REACK
2d63 30 0b                      BMI          FD6                       ; BR IF NONE
2d65 f0 09                      BEQ          FD6                       ; BR IF END OF FILE
2d67 48                         PHA                                    ; SAVE TRK
2d68 c8                         INY
2d69 b1 42                      LDA          (ZPGFCB),Y                ; GET SECTOR
2d6b a8                         TAY                                    ; TO Y
2d6c 68                         PLA                                    ; GET TRK
2d6d 20 89 2d                   JSR          FDSUB                     ; GO FREE SECTOR
2d70 ac 9c 33   FD6             LDY          TEMP1                     ; GET DIR INDEX
2d73 c8                         INY                                    ; INCR TO NEXT ENTRY
2d74 c8                         INY
2d75 d0 e7                      BNE          FD5                       ; BR NOT DONE THIS DIR
2d77 ad d3 35                   LDA          DCBCDT                    ; GET THIS DIR TRK
2d7a ac d4 35                   LDY          DCBCDS                    ; AND SECTOR
2d7d 20 89 2d                   JSR          FDSUB                     ; AND GO FREE IT
2d80 38                         SEC                                    ; GO
2d81 b0 d1                      BCS          FD4                       ; READ NEXT DIR
                FD7             EQU          *
2d83 20 fb 2f                   JSR          WRVTOC
2d86 4c 7f 33                   JMP          GOODIO
                ;
                FDSUB           EQU          *
2d89 38                         SEC                                    ; SET FOR RE USE OF SEC
2d8a 20 dd 32                   JSR          FRESEC                    ; GO FREE SECTOR
2d8d a9 00                      LDA          #0                        ; CLEAR DCB BIT MAP
2d8f a2 05                      LDX          #5                        ;CLEAR ALL OF TRK BITMAP SO
                *     ;>16 SECTORS/TRK WILL WORK
2d91 9d f0 35   FDS1            STA          DCBALS,X
2d94 ca                         DEX
2d95 10 fa                      BPL          FDS1
2d97 60                         RTS
                ;;;                PAGE
                ;
                *   RDIR - PRINT DIRECTORY
                ;
                RDIR            EQU          *
2d98 20 dc 2b                   JSR          DCBSUP
2d9b a9 ff                      LDA          #$FF
2d9d 8d f9 35                   STA          DCBVOL
2da0 20 f7 2f                   JSR          RDVTOC
2da3 a9 16                      LDA          #22                       ; SET 21 LINES
2da5 8d 9d 33                   STA          TEMP2
2da8 20 2f 2e                   JSR          PRCR                      ; GO PRINT
2dab 20 2f 2e                   JSR          PRCR                      ; PRINT ANOTHER CHAR
2dae a2 0b                      LDX          #VML                      ; VOLUME MSG LENGTH
2db0 bd af 33   RD0             LDA          VOLMES,X                  ; GET MSG CHAR
2db3 20 ed fd                   JSR          PRINT                     ; PRINT IT
2db6 ca                         DEX                                    ; DECREMENT COUNT
2db7 10 f7                      BPL          RD0                       ; BR IF MORE
                ;
2db9 86 45                      STX          CNUM+1
2dbb ad f6 37                   LDA          IBSMOD                    ; MOVE VOL NO FOR
2dbe 85 44                      STA          CNUM                      ; CONVERSION
2dc0 20 42 2e                   JSR          PRNUM                     ; GO PRINT VOL NO
                ;
2dc3 20 2f 2e                   JSR          PRCR                      ; PRINT CR
2dc6 20 2f 2e                   JSR          PRCR                      ; AND AGAIN
                ;
2dc9 18                         CLC                                    ; FIRST RECORD
                ;
2dca 20 11 30   RD1             JSR          RDVDIR                    ; GO READ REC
2dcd b0 5d                      BCS          RD5
2dcf a2 00                      LDX          #0                        ; SET INDEX=0
2dd1 8e 9c 33   RD2             STX          TEMP1                     ; SAVE INDEX
2dd4 bd c6 34                   LDA          VDFILE,X                  ; GET TRACK
2dd7 f0 53                      BEQ          RD5                       ; BR IF END OF DIR
2dd9 30 4a                      BMI          RD4                       ; BR IF DELETED
                ;
2ddb a0 a0                      LDY          #$A0                      ; BLANK
2ddd bd c8 34                   LDA          VDFILE+2,X                ; GET TYPE
2de0 10 02                      BPL          RD2A                      ; BR IF NOT LOCKED
2de2 a0 aa                      LDY          #'*'+$80                  ; AST
2de4 98         RD2A            TYA                                    ; ACU = AST OR BLANK
2de5 20 ed fd                   JSR          PRINT                     ; PRINT ACU
                ;
2de8 bd c8 34                   LDA          VDFILE+2,X                ; GET TYPE
2deb 29 7f                      AND          #$7F                      ; MASK OUT MISC
2ded a0 07                      LDY          #7                        ; SET INDEX = 7
2def 0a                         ASL          A                         ;GET RID OF HI BIT
2df0 0a         RD2B            ASL          A                         ; SHIFT OUT MSB
2df1 b0 03                      BCS          RD2C                      ; BR IF TYPE BIT OUT
2df3 88                         DEY                                    ; DEC INDEX
2df4 d0 fa                      BNE          RD2B                      ; BR IF NOT ACC BITS
                RD2C            EQU          *
2df6 b9 a7 33                   LDA          FTTAB,Y                   ; GET TYPE CODE
2df9 20 ed fd                   JSR          PRINT                     ; PRINT IT
2dfc a9 a0                      LDA          #$A0                      ; BLANK
2dfe 20 ed fd                   JSR          PRINT                     ; PRINT
                ;
2e01 bd e7 34                   LDA          VDFILE+33,X               ; MOVE FILE LENGTH
2e04 85 44                      STA          CNUM                      ; TO CNUM
2e06 bd e8 34                   LDA          VDFILE+34,X
2e09 85 45                      STA          CNUM+1
2e0b 20 42 2e                   JSR          PRNUM                     ; GO PRINT NUMBER
2e0e a9 a0                      LDA          #$A0                      ; BLANK
2e10 20 ed fd                   JSR          PRINT                     ; PRINT
                ;
2e13 e8                         INX
2e14 e8                         INX
2e15 e8                         INX
2e16 a0 1d                      LDY          #29
2e18 bd c6 34   RD3             LDA          VDFILE,X                  ; GET CHAR
2e1b 20 ed fd                   JSR          PRINT                     ; PRINT CHAR
2e1e e8                         INX
2e1f 88                         DEY
2e20 10 f6                      BPL          RD3
                RD3A            EQU          *
2e22 20 2f 2e                   JSR          PRCR                      ; GO PRINT CR
2e25 20 30 32   RD4             JSR          VDINC                     ; INCR INDEX
2e28 90 a7                      BCC          RD2                       ; BR IF MORE IN DIR
2e2a b0 9e                      BCS          RD1                       ; GO READ NEXT DIR SECT
                ;
2e2c 4c 7f 33   RD5             JMP          GOODIO                    ; DONE
                ;
                PRCR            EQU          *
2e2f a9 8d                      LDA          #$8D                      ; CR
2e31 20 ed fd                   JSR          PRINT                     ; PRINTED
2e34 ce 9d 33                   DEC          TEMP2                     ; DEC LINE COUNTER
2e37 d0 08                      BNE          PRCR1                     ; BR IF NOT ZERO
2e39 20 0c fd                   JSR          GETKEY                    ; WAIT FOR INPUT
2e3c a9 15                      LDA          #21                       ; RESET LINE COUNTER
2e3e 8d 9d 33                   STA          TEMP2
2e41 60         PRCR1           RTS                                    ; DONE
                ;;;                PAGE
                PRNUM           EQU          *
2e42 a0 02                      LDY          #2                        ; 3 DIGITS
2e44 a9 00      PRN1            LDA          #0                        ; INIT DIGIT TO ZERO
2e46 48                         PHA                                    ; SAVE IT
                ;
2e47 a5 44      PRN2            LDA          CNUM                      ; GET NUMBER
2e49 d9 a4 33                   CMP          CVTAB,Y                   ; IF NUM < CVTAB ENTRY
2e4c 90 12                      BCC          PRN3                      ; THEN DONE THIS DIGIT
                ;
2e4e f9 a4 33                   SBC          CVTAB,Y                   ; SUBTRACT TABLE ENTRY
2e51 85 44                      STA          CNUM                      ; FROM NUM
2e53 a5 45                      LDA          CNUM+1
2e55 e9 00                      SBC          #0
2e57 85 45                      STA          CNUM+1
2e59 68                         PLA                                    ; INCREMENT DIGIT
2e5a 69 00                      ADC          #0
2e5c 48                         PHA
2e5d 4c 47 2e                   JMP          PRN2                      ; TRY AGAIN
                ;
                PRN3            EQU          *
2e60 68                         PLA                                    ; GET DIGIT
2e61 09 b0                      ORA          #$B0                      ; ADD ASCII 0
2e63 20 ed fd                   JSR          PRINT                     ; PRINT IT
2e66 88                         DEY                                    ; DECREMENT DIGIT COUNT
2e67 10 db                      BPL          PRN1                      ; BR IF MORE DIGIT
                ;
2e69 60                         RTS                                    ; DONE
                ;;;                PAGE
                ;
                *   CLCFCB - GET FCB VIA INDEX AND MOVE IT
                ;
                CLCFCB          EQU          *
                ;
2e6a 20 08 2f                   JSR          MVFCBP                    ; MOVE FCB PTR TO ZPG
2e6d a0 00                      LDY          #0
2e6f 8c c5 35                   STY          CCBSTA
2e72 b1 42      CF3             LDA          (ZPGFCB),Y                ; MOVE FCB TO
2e74 99 d1 35                   STA          FCB,Y                     ; FCB WORK AREA
2e77 c8                         INY
2e78 c0 2d                      CPY          #FCBLEN
2e7a d0 f6                      BNE          CF3
                ;
2e7c 18                         CLC                                    ; DONE
2e7d 60                         RTS
                ;
                *   RTNFCB - MOVE FCB FROM WORK AREA TO FCB
                ;
                RTNFCB          EQU          *
2e7e 20 08 2f                   JSR          MVFCBP                    ; MOVE FCB ADR TO ZPG
                ;
2e81 a0 00                      LDY          #0
2e83 b9 d1 35   RF1             LDA          FCB,Y
2e86 91 42                      STA          (ZPGFCB),Y
2e88 c8                         INY
2e89 c0 2d                      CPY          #FCBLEN
2e8b d0 f6                      BNE          RF1
2e8d 60                         RTS
                
                ; ####################################################################################################
                ; #   END OF FILE:  FDELCAT
                ; #   LINES      :  249
                ; #   CHARACTERS :  11371
                ; #   Formatter  :  Assembly Language Reformatter 1.0.2 (07 January 1998)
                ; ####################################################################################################
                ; ####################################################################################################
                ; #   PROJECT  :  APPLE ][ DOS 3.3 C SOURCE CODE LISTING -- (C) APPLE COMPUTER INC. JULY 1983
                ; #   FILE NAME:  FMTRWIO
                ; ####################################################################################################
                
                ;;;                PAGE
                ;
                *   FFMT - EXECUTE FORMAT REQUEST
                ;
                FFMT            EQU          *
2e8e 20 dc 2b                   JSR          DCBSUP                    ; SET UP DCB
2e91 a9 04                      LDA          #IBFMT
2e93 20 58 30                   JSR          DCBIO2
2e96 ad f9 35                   LDA          DCBVOL                    ; SET VOL NO
2e99 49 ff                      EOR          #$FF
2e9b 8d c1 33                   STA          VVOLNO
2e9e a9 11                      LDA          #17
2ea0 8d eb 33                   STA          VALCA1                    ; ALOCATE BYTE 1
2ea3 a9 01                      LDA          #1
2ea5 8d ec 33                   STA          VALCA2                    ; ADD BYTE 2
                ;
2ea8 a2 38                      LDX          #VSECAL-VTOC
2eaa a9 00                      LDA          #0
2eac 9d bb 33   NT1             STA          VTOC,X                    ; CLEAR SECTOR AREA
2eaf e8                         INX
2eb0 d0 fa                      BNE          NT1
                ;
2eb2 a2 0c                      LDX          #3*4                      ; START AT TRACK 3
2eb4 e0 8c      NT2             CPX          #35*4                     ; END AT TRACK 35
2eb6 f0 14                      BEQ          NT4
2eb8 a0 03                      LDY          #3                        ; 4 BYTES OF INFO
2eba b9 a0 33   NT3             LDA          ALC10S,Y                  ; 10 SECTORS ALLOCATE
2ebd 9d f3 33                   STA          VSECAL,X
2ec0 e8                         INX
2ec1 88                         DEY
2ec2 10 f6                      BPL          NT3
2ec4 e0 44                      CPX          #17*4                     ; AT TRACK 17
2ec6 d0 ec                      BNE          NT2                       ; BR IF NOT
2ec8 a2 48                      LDX          #18*4                     ; SKIP TO 18
2eca d0 e8                      BNE          NT2
                ;
2ecc 20 fb 2f   NT4             JSR          WRVTOC                    ; WRITE NEW VTOC
                ;
2ecf a2 00                      LDX          #0
2ed1 8a                         TXA
2ed2 9d bb 34   NT5             STA          VOLDIR,X                  ; CLEAR VOLDIR
2ed5 e8                         INX
2ed6 d0 fa                      BNE          NT5
                ;
2ed8 20 45 30                   JSR          MVVDBA                    ; MOVE BUF PTRS
                ;
2edb a9 11                      LDA          #17                       ; TRACK 17
2edd ac f0 33                   LDY          VNOSEC
2ee0 88                         DEY
2ee1 88                         DEY
2ee2 8d ec 37                   STA          IBTRK                     ; INTO IOB
2ee5 8d bc 34   NT6             STA          VDLTRK                    ; INTO LINK
2ee8 8c bd 34   NT7             STY          VDLSEC
2eeb c8                         INY
2eec 8c ed 37                   STY          IBSECT
2eef a9 02                      LDA          #IBCWTS
2ef1 20 58 30                   JSR          DCBIO2
2ef4 ac bd 34                   LDY          VDLSEC
2ef7 88                         DEY                                    ; DECREMENT SECTOR
2ef8 30 05                      BMI          NT8                       ; BR LAST WRITTEN
2efa d0 ec                      BNE          NT7                       ; BR NOT LAST
2efc 98                         TYA                                    ; LAST, SET LINK TRK=0
2efd f0 e6                      BEQ          NT6
                ;
                NT8             EQU          *
2eff 20 c2 37                   JSR          DLDSUP                    ; GO SET UP FOR DOSLDR
2f02 20 4a 37                   JSR          WBOOT                     ; GO WRITE THE BOOT
2f05 4c 7f 33                   JMP          GOODIO                    ; DONE
                ;;;                PAGE
                ;
                *   MVFCBX - MOVE FCB ADRS TO ZPGFCB
                ;
2f08 a2 00      MVFCBP          LDX          #0                        ; MOVE FCB ADR
2f0a f0 06                      BEQ          MVF1
2f0c a2 02      MVFCBD          LDX          #2                        ; MOVE FCB DIR BUFF
2f0e d0 02                      BNE          MVF1
2f10 a2 04      MVFCBS          LDX          #4                        ; MOVE FCB SECTOR BUFF
                ;
                MVF1            EQU          *
2f12 bd c7 35                   LDA          CFCBAD,X                  ; DO THE MOVE
2f15 85 42                      STA          ZPGFCB
2f17 bd c8 35                   LDA          CFCBAD+1,X
2f1a 85 43                      STA          ZPGFCB+1
2f1c 60                         RTS
                ;
                ;;;                PAGE
                ;
                *   WRSECT - WRITE CURRENT SECTOR IF REQD
                ;
                WRSECT          EQU          *
2f1d 2c d5 35                   BIT          DCBWRF                    ; GET WRITE REQD FLAG
2f20 70 01                      BVS          WRSGO                     ; BR IF WRITE SECTOR REQD
2f22 60                         RTS                                    ; RTS
                ;
                WRSGO           EQU          *
2f23 20 e4 2f                   JSR          MVSBA                     ; GO MOVE SECT BUFF ADR
                ;
2f26 a9 02                      LDA          #IBCWTS                   ; GET COMMAND
2f28 20 52 30                   JSR          DCBIO                     ; GO FILL IN IOB AND DO IO
                ;
2f2b a9 bf                      LDA          #$BF                      ; SET WRITE SECTOR REQD BIT OFF
2f2d 2d d5 35                   AND          DCBWRF
2f30 8d d5 35                   STA          DCBWRF
2f33 60                         RTS                                    ; DONE
                ;;;                PAGE
                ;
                *   WRFDIR - WRITE FILE DIRECTRY IF REQD
                ;
                WRFDIR          EQU          *
2f34 ad d5 35                   LDA          DCBWRF                    ; GET WRITE REQD FLAG
2f37 30 01                      BMI          WRFDGO                    ; BR IF WRITE DIR REQD
2f39 60                         RTS                                    ; DONE IF NOT
                ;
                WRFDGO          EQU          *
2f3a 20 4b 2f                   JSR          MVFDBA
                ;
2f3d a9 02                      LDA          #IBCWTS                   ; GET WRITE CMD
2f3f 20 52 30                   JSR          DCBIO                     ; GO FILL IN IOB AND DO I/O
                ;
2f42 a9 7f                      LDA          #$7F                      ; TURN WRITE DIR REQD BIT OFF
2f44 2d d5 35                   AND          DCBWRF
2f47 8d d5 35                   STA          DCBWRF
2f4a 60                         RTS                                    ; DONE
                ;
                *   MVFDBA - MOVE FILE DIRECTORY BUFF ASDR TO IOD
                ;
                MVFDBA          EQU          *
2f4b ad c9 35                   LDA          CFCBDR                    ; MOVE ADR
2f4e 8d f0 37                   STA          IBBUFP
2f51 ad ca 35                   LDA          CFCBDR+1
2f54 8d f1 37                   STA          IBBUFP+1
2f57 ae d3 35                   LDX          DCBCDT                    ; GET TRACK
2f5a ac d4 35                   LDY          DCBCDS                    ; GET SECTOR
2f5d 60                         RTS
                ;;;                PAGE
                ;
                *   RDFDIR - READ FILE DIRECTORY
                ;
                RDFDIR          EQU          *
2f5e 08                         PHP                                    ; SAVE STATUS
2f5f 20 34 2f                   JSR          WRFDIR                    ; GO WRITE CURRENT DIR IF REQD
2f62 20 4b 2f                   JSR          MVFDBA                    ; GO MOVE DBUFF ADR TO IOB
2f65 20 0c 2f                   JSR          MVFCBD                    ; MOVE DBUFF ADR TO ZPG
2f68 28                         PLP                                    ; GET SAVED STATUS
2f69 b0 09                      BCS          RFDNXT                    ; BR IF RD NEXT
                ;
2f6b ae d1 35                   LDX          DCBFDT                    ; TRACK
2f6e ac d2 35                   LDY          DCBFDS                    ; SECTOR
2f71 4c b5 2f                   JMP          RFDIO1                    ; GO READ
                ;
                RFDNXT          EQU          *
2f74 a0 01                      LDY          #FDLTRK                   ; GET LINK TRACK
2f76 b1 42                      LDA          (ZPGFCB),Y
2f78 f0 08                      BEQ          RFDNL                     ; NR NO LINK
2f7a aa                         TAX                                    ; PUT TRACK INTO X
2f7b c8                         INY
2f7c b1 42                      LDA          (ZPGFCB),Y                ; SET LINK SECTOR
2f7e a8                         TAY                                    ; PUT SECTOR INTO Y
2f7f 4c b5 2f                   JMP          RFDIO1                    ; GO DO I/O
                ;
                RFDNL           EQU          *
2f82 ad bb 35                   LDA          CCBREQ                    ; THIS A WRITE
2f85 c9 04                      CMP          #CRQWR
2f87 f0 02                      BEQ          RFDNL1                    ; BR IF WRITE
2f89 38                         SEC                                    ; SET EOF
2f8a 60                         RTS                                    ; RETURN
                ;
                RFDNL1          EQU          *
2f8b 20 44 32                   JSR          GETSEC                    ; GET A SECTOR
2f8e a0 02                      LDY          #FDLSEC
2f90 91 42                      STA          (ZPGFCB),Y                ; PUT IN LINK
2f92 48                         PHA                                    ; SAVE SECTOR
2f93 88                         DEY
2f94 ad f1 35                   LDA          DCBATK                    ; GET TRACK
2f97 91 42                      STA          (ZPGFCB),Y                ; PUT IN LINK
2f99 48                         PHA                                    ; SAVE TRACK
2f9a 20 3a 2f                   JSR          WRFDGO                    ; GO WRITE OLD DIR DEC
                ;
2f9d 20 d6 37                   JSR          CLRSEC                    ; CLEAN OUT DIR
2fa0 a0 05                      LDY          #FDFRS                    ; SET NEW DIR SEC 1ST REL
2fa2 ad de 35                   LDA          DCBDNF                    ; FILE SECTOR
2fa5 91 42                      STA          (ZPGFCB),Y
2fa7 c8                         INY
2fa8 ad df 35                   LDA          DCBDNF+1
2fab 91 42                      STA          (ZPGFCB),Y
                ;
2fad 68                         PLA                                    ; GET SAVED TRACK
2fae aa                         TAX                                    ; INTO X
2faf 68                         PLA                                    ; GET SAVED SECTOR
2fb0 a8                         TAY                                    ; INTO Y
2fb1 a9 02                      LDA          #IBCWTS                   ; SET WRITE CMD
2fb3 d0 02                      BNE          RFDIO2                    ; GO DO I/O
                ;
2fb5 a9 01      RFDIO1          LDA          #IBCRTS                   ; SET READ CMD
2fb7 8e d3 35   RFDIO2          STX          DCBCDT                    ; SET CURR TRACK
2fba 8c d4 35                   STY          DCBCDS                    ; SET CURR SECTOR
2fbd 20 52 30                   JSR          DCBIO                     ; GO I/O
                ;
2fc0 a0 05      RDFDC           LDY          #FDFRS                    ; GET POINTER TO FIRST REL SECTOR
2fc2 b1 42                      LDA          (ZPGFCB),Y                ; GET FRS
2fc4 8d dc 35                   STA          DCBDFS                    ; SET INTO DCB
2fc7 18                         CLC
2fc8 6d da 35                   ADC          DCBDMS                    ; ADD MAX SECTORS
2fcb 8d de 35                   STA          DCBDNF                    ; PUT INTO DCB
                ;
2fce c8                         INY                                    ; DO SAME FOR HI BYTE
2fcf b1 42                      LDA          (ZPGFCB),Y
2fd1 8d dd 35                   STA          DCBDFS+1
2fd4 6d db 35                   ADC          DCBDMS+1
2fd7 8d df 35                   STA          DCBDNF+1
                ;
2fda 18                         CLC
2fdb 60                         RTS                                    ; DONE
                ;;;                PAGE
                ;
                ;RDSECT - READ A SECTOR
                ;
                RDSECT          EQU          *
2fdc 20 e4 2f                   JSR          MVSBA                     ; GO MOVE SECTOR BUFFER ADR
                ;
2fdf a9 01                      LDA          #IBCRTS
2fe1 4c 52 30                   JMP          DCBIO                     ; GO DO I/O
                ;
                ;MVSBA - MOVE SECTOR BUFFER ADR FOR I/O
                ;
                MVSBA           EQU          *
2fe4 ac cb 35                   LDY          CFCBSB                    ; GET SECTOR BUFF ADR
2fe7 ad cc 35                   LDA          CFCBSB+1
2fea 8c f0 37   MSB1            STY          IBBUFP                    ; SET IOB SECTOR
2fed 8d f1 37                   STA          IBBUFP+1                  ; BUFF PTR
2ff0 ae d6 35                   LDX          DCBTRK                    ; GET TRACK
2ff3 ac d7 35                   LDY          DCBSEC                    ; GET SECTOR
2ff6 60                         RTS                                    ; RTN
                
                ; ####################################################################################################
                ; #   END OF FILE:  FMTRWIO
                ; #   LINES      :  233
                ; #   CHARACTERS :  9921
                ; #   Formatter  :  Assembly Language Reformatter 1.0.2 (07 January 1998)
                ; ####################################################################################################
                ; ####################################################################################################
                ; #   PROJECT  :  APPLE ][ DOS 3.3 C SOURCE CODE LISTING -- (C) APPLE COMPUTER INC. JULY 1983
                ; #   FILE NAME:  FLOCNXB
                ; ####################################################################################################
                
                ;;;                PAGE
                ;
                ;RDVTOC - READ VTOC
                ;WRVTOC - WRITE VTOC
                ;
                RDVTOC          EQU          *
2ff7 a9 01                      LDA          #IBCRTS                   ; READ
2ff9 d0 02                      BNE          VTIO
                WRVTOC          EQU          *
2ffb a9 02                      LDA          #IBCWTS                   ; WRITE
                ;
2ffd ac c3 2a   VTIO            LDY          AVTOC                     ; MOVE BUFF ADR
3000 8c f0 37                   STY          IBBUFP
3003 ac c4 2a                   LDY          AVTOC+1
3006 8c f1 37                   STY          IBBUFP+1
                ;
3009 ae fa 35                   LDX          DCBVTN                    ; GET TRACK
300c a0 00                      LDY          #0
300e 4c 52 30                   JMP          DCBIO                     ; GO DO I/O
                ;;;                PAGE
                ;
                ;RDVDIR - READ VOLUME DIRECTOR
                ;
                RDVDIR          EQU          *
3011 08                         PHP                                    ; SAVE STATUS
3012 20 45 30                   JSR          MVVDBA
                ;
3015 28                         PLP                                    ; GET STATUS
3016 b0 08                      BCS          RVDA                      ; BR IF R0 NEXT
                ;
3018 ac bd 33   RVDC            LDY          VDIRSC                    ; GET 1ST SECTOR
301b ae bc 33                   LDX          VDIRTK                    ; GET FIRST TRK
301e d0 0a                      BNE          RVDGO                     ; GO READ
                ;
                RVDA            EQU          *
3020 ae bc 34                   LDX          VDLTRK                    ; GET LINK TRACK
3023 d0 02                      BNE          RDVC                      ; BR IF A LINK
3025 38                         SEC                                    ; SET END OF DIR
3026 60                         RTS
                ;
3027 ac bd 34   RDVC            LDY          VDLSEC                    ; GET SECTOR
                RVDGO           EQU          *
302a 8e 97 33                   STX          CVDTRK                    ; SET CUR TRACK
302d 8c 98 33                   STY          CVDSEC                    ; SET CUR SECTOR
3030 a9 01                      LDA          #IBCRTS                   ; GET CMD
3032 20 52 30                   JSR          DCBIO                     ; GO DO I/O
3035 18                         CLC
3036 60                         RTS
                ;;;                PAGE
                ;
                ;WRVDIR - WRITE VOLUME DIRECTORY SECTOR
                ;
                WRVDIR          EQU          *
3037 20 45 30                   JSR          MVVDBA
                ;
303a ae 97 33                   LDX          CVDTRK                    ; CURRENT TRACK
303d ac 98 33                   LDY          CVDSEC                    ; CURRENT SECTOR
3040 a9 02                      LDA          #IBCWTS                   ; WRITE COMMAND
3042 4c 52 30                   JMP          DCBIO                     ; GO DO I/O
                ;
                ;MVVDBA - MOVE VOL DIR BUF ADR TO IOB
                ;
                MVVDBA          EQU          *
3045 ad c5 2a                   LDA          AVOLDR                    ; MOVE ADR
3048 8d f0 37                   STA          IBBUFP
304b ad c6 2a                   LDA          AVOLDR+1
304e 8d f1 37                   STA          IBBUFP+1
3051 60                         RTS
                ;;;                PAGE
                ;
                ;DCBIO - DO I/O FOR A DCB
                ;
                DCBIO           EQU          *
3052 8e ec 37                   STX          IBTRK                     ; TRACK
3055 8c ed 37                   STY          IBSECT                    ; SECTOR
                DCBIO2          EQU          *
3058 8d f4 37                   STA          IBCMD                     ; COMMAND
305b c9 02                      CMP          #IBCWTS
305d d0 06                      BNE          DCBIO1
305f 0d d5 35                   ORA          DCBWRF
3062 8d d5 35                   STA          DCBWRF
                DCBIO1          EQU          *
3065 ad f9 35                   LDA          DCBVOL                    ; VOL
3068 49 ff                      EOR          #$FF                      ; UNINVERT VOL BITS
306a 8d eb 37                   STA          IBVOL
306d ad f7 35                   LDA          DCBSLT                    ; SLOT
3070 8d e9 37                   STA          IBSLOT
3073 ad f8 35                   LDA          DCBDRV                    ; DRIVE
3076 8d ea 37                   STA          IBDRVN
3079 ad e2 35                   LDA          DCBSDL                    ; LENGTH
307c 8d f2 37                   STA          IBDLEN
307f ad e3 35                   LDA          DCBSDL+1
3082 8d f3 37                   STA          IBDLEN+1
3085 a9 01                      LDA          #1                        ; IOB TYPE
3087 8d e8 37                   STA          IBTYPE
                ;
308a ac c1 2a                   LDY          AIOB                      ; IOB ADR
308d ad c2 2a                   LDA          AIOB+1
3090 20 b5 37                   JSR          DISKIO                    ; GO DO I/O
                ;
3093 ad f6 37                   LDA          IBSMOD
3096 8d bf 35                   STA          CCBVOL
3099 a9 ff                      LDA          #$FF                      ; RESET VOL
309b 8d eb 37                   STA          IBVOL
309e b0 01                      BCS          BADIO                     ; BR IF BAD
30a0 60                         RTS                                    ; RTN IF GOOD
                ;
30a1 ad f5 37   BADIO           LDA          IBSTAT                    ; GET STATUS
30a4 a0 07                      LDY          #CREVMM
30a6 c9 20                      CMP          #IBVMME                   ; WAS IT VOLUME MISMATCH
30a8 f0 08                      BEQ          BD2                       ; BR IF YES
30aa a0 04                      LDY          #CREPRO
30ac c9 10                      CMP          #IBWPER
30ae f0 02                      BEQ          BD2
30b0 a0 08                      LDY          #CREIOE
30b2 98         BD2             TYA
30b3 4c 85 33                   JMP          ERRORB                    ; GO RTN
                ;;;                PAGE
                ;
                ;LOCNXB - LOCATE NEXT BYTE
                ;
                LOCNXB          EQU          *
30b6 ad e4 35                   LDA          DCBCRS                    ; IS THE CURRENT RELATIVE SECTOR
30b9 cd e0 35                   CMP          DCBCMS                    ; EQUAL TO THE CURRENT MEM SECTOR
30bc d0 08                      BNE          LNB1                      ; BR IF NOT EQ
30be ad e5 35                   LDA          DCBCRS+1
30c1 cd e1 35                   CMP          DCBCMS+1
30c4 f0 66                      BEQ          LNB8                      ; BR IF REQD SECTOR IN MEM
                ;
                LNB1            EQU          *                         ; NEED A DIFFERENT SECTOR IN MEM
30c6 20 1d 2f                   JSR          WRSECT                    ; GO WRITE SECTOR (IF REQD)
                ;
30c9 ad e5 35   LNB2            LDA          DCBCRS+1                  ; IS CURRENT REL SECTORY
30cc cd dd 35                   CMP          DCBDFS+1                  ; IN CURRENT DIRECTORY (LOW LIMIT)
30cf 90 1c                      BCC          LNB4                      ; BR IF IN A PREVIOUS DIR
30d1 d0 08                      BNE          LNB3                      ; BR IF MAYBE IN THIS ONE
30d3 ad e4 35                   LDA          DCBCRS                    ; TEST LOW BYTES
30d6 cd dc 35                   CMP          DCBDFS
30d9 90 12                      BCC          LNB4                      ; BR IF IN PREVIOUS DIR
                ;
30db ad e5 35   LNB3            LDA          DCBCRS+1                  ; IS CURRENT REL SECTOR
30de cd df 35                   CMP          DCBDNF+1                  ; IN CURRENT DIRECTOR (HI LIMIT)
30e1 90 10                      BCC          LNB6                      ; BR IF IN THIS ONE
30e3 d0 08                      BNE          LNB4                      ; BR IF IN A NEXT DIR
30e5 ad e4 35                   LDA          DCBCRS
30e8 cd de 35                   CMP          DCBDNF
30eb 90 06                      BCC          LNB6                      ; BR IF IN THIS ONE
                ;REQD SECTOR IN A NEXT DIRECTORY
30ed 20 5e 2f   LNB4            JSR          RDFDIR                    ; GO READ NEXT FILE DIR
30f0 90 d7                      BCC          LNB2                      ; BR NXT AVAIL
30f2 60                         RTS                                    ; RETURN IF EOF DIR
                ;
                ;
                LNB6            EQU          *                         ; CALCULATE DISPL INTO DIR
30f3 38                         SEC
30f4 ad e4 35                   LDA          DCBCRS                    ; REQD REL SECTOR MINUS
30f7 ed dc 35                   SBC          DCBDFS
30fa 0a                         ASL          A                         ; TIMES 2
30fb 69 0c                      ADC          #FDENT                    ; PLUS DISPL TO 1ST
30fd a8                         TAY
30fe 20 0c 2f                   JSR          MVFCBD                    ; MOVE DIR ADR TO ZPG
3101 b1 42                      LDA          (ZPGFCB),Y                ; GET TRACK
3103 d0 0f                      BNE          LNB7                      ; BR IF NOT ZERO
3105 ad bb 35                   LDA          CCBREQ
3108 c9 04                      CMP          #CRQWR                    ; WRITE!
310a f0 02                      BEQ          LNB7A
310c 38                         SEC
310d 60                         RTS
310e 20 34 31   LNB7A           JSR          GNWSEC                    ; GO GET A NEW SECTOR
3111 4c 20 31                   JMP          LNBCON
3114 8d d6 35   LNB7            STA          DCBTRK                    ; SET TRK INTO DCB
3117 c8                         INY
3118 b1 42                      LDA          (ZPGFCB),Y                ; GET SECTOR
311a 8d d7 35                   STA          DCBSEC                    ; PUT INTO DCB
311d 20 dc 2f                   JSR          RDSECT                    ; GO READ SECTOR
3120 ad e4 35   LNBCON          LDA          DCBCRS                    ; MOVE CUR REL SECTOR
3123 8d e0 35                   STA          DCBCMS
3126 ad e5 35                   LDA          DCBCRS+1                  ; TO CUR MEM SECTOR
3129 8d e1 35                   STA          DCBCMS+1
                ;
                LNB8            EQU          *
312c 20 10 2f                   JSR          MVFCBS                    ; MOVE SECTOR BUFF ADR TO ZP
312f ac e6 35                   LDY          DCBCSB                    ; GET SECT BYTE
3132 18                         CLC                                    ; CARRY CLEAR = ALL OK
3133 60                         RTS                                    ; DONE
                ;;;                PAGE
                ;
                ;
                GNWSEC          EQU          *                         ; NEED NEW SECTOR
3134 8c 9d 33                   STY          TEMP2                     ; SAVE DIR INDEX
3137 20 44 32                   JSR          GETSEC                    ; GET A SECTOR
313a ac 9d 33                   LDY          TEMP2
313d c8                         INY
313e 91 42                      STA          (ZPGFCB),Y                ; SET NEW SECTOR
3140 8d d7 35                   STA          DCBSEC
3143 88                         DEY
3144 ad f1 35                   LDA          DCBATK
3147 91 42                      STA          (ZPGFCB),Y                ; SET NEW TRACK
3149 8d d6 35                   STA          DCBTRK
                ;
314c 20 10 2f                   JSR          MVFCBS
314f 20 d6 37                   JSR          CLRSEC                    ; GO CLEAR SECTOR
                ;
                ;
3152 a9 c0                      LDA          #$C0                      ; INDICATE BOTH
3154 0d d5 35                   ORA          DCBWRF                    ; DIR AND SECTOR
3157 8d d5 35                   STA          DCBWRF                    ; MUST BE WRITTEN
315a 60                         RTS                                    ; DONE
                ;;;                PAGE
                ;
                ;INCRRB - INCREMENT RELATIVE RECORD BYTE
                ;
                INCRRB          EQU          *
315b ae ea 35                   LDX          DCBCRR                    ; MOVE BYTE JUST READ OR WRITTEN
315e 8e bd 35                   STX          CCBRRN
3161 ae eb 35                   LDX          DCBCRR+1
3164 8e be 35                   STX          CCBRRN+1
3167 ae ec 35                   LDX          DCBCRB                    ; X=REL BYTE (LOW)
316a ac ed 35                   LDY          DCBCRB+1                  ; Y=REL BYTE HI
316d 8e bf 35                   STX          CCBBYT
3170 8c c0 35                   STY          CCBBYT+1
3173 e8                         INX                                    ; INC REL BYTE (LOW)
3174 d0 01                      BNE          INCR1                     ; BR IF NO CARRY
3176 c8                         INY                                    ; INC REL BYTE (HI)
                ;
3177 cc e9 35   INCR1           CPY          DCBRCL+1                  ; REL BYTE=REC LENGTH
317a d0 11                      BNE          INCR2                     ; BR IF NOT
317c ec e8 35                   CPX          DCBRCL                    ; TEST LOW BYTES
317f d0 0c                      BNE          INCR2
3181 a2 00                      LDX          #0
3183 a0 00                      LDY          #0                        ; RESET REL BYTE TO ZERO
3185 ee ea 35                   INC          DCBCRR                    ; AND INCR
3188 d0 03                      BNE          INCR2                     ; RELATIVE RECORD
318a ee eb 35                   INC          DCBCRR+1
                ;
318d 8e ec 35   INCR2           STX          DCBCRB                    ; SAVE NEW RELATIVE BYTE
3190 8c ed 35                   STY          DCBCRB+1
                ;
3193 60                         RTS
                ;;;                PAGE
                ;
                ;INCSCB - INCREMENT SECTOR BYTE
                ;
                INCSCB          EQU          *
3194 ee e6 35                   INC          DCBCSB                    ; INC SECTOR BYTE
3197 d0 08                      BNE          INCS2                     ; BR IF NOT FULL
3199 ee e4 35                   INC          DCBCRS                    ; AND INCR
319c d0 03                      BNE          INCS2                     ; RELATIVE SECTOR
319e ee e5 35                   INC          DCBCRS+1
                ;
                ;
                INCS2           EQU          *
31a1 60                         RTS                                    ; DONE
                ;;;                PAGE
                ;
                ;MIBDA - MOVE AND INCREMENT CCBDAT
                ;
                MIBDA           EQU          *
31a2 ac c3 35                   LDY          CCBBBA                    ; Y=ADR LOW
31a5 ae c4 35                   LDX          CCBBBA+1                  ; X=ADR HI
31a8 84 42                      STY          ZPGFCB                    ; PUT ADR INTO ZPG
31aa 86 43                      STX          ZPGFCB+1
                ;
31ac ee c3 35                   INC          CCBBBA                    ; INC ADR LOW
31af d0 03                      BNE          MIB1                      ; BR IF NOT ZERO
31b1 ee c4 35                   INC          CCBBBA+1                  ; INC ADR HI
31b4 60         MIB1            RTS                                    ; DONE
                ;
                ;DTBLN - DECREMENT BLOCK LENGTH AND TEST ZERO
                ;
                DTBLN           EQU          *
31b5 ac c1 35                   LDY          CCBBLN                    ; GET LEN LOW
31b8 d0 08                      BNE          DTB1                      ; BR IF NOT ZERO
31ba ae c2 35                   LDX          CCBBLN+1                  ; GET LEN HI
31bd f0 07                      BEQ          DTB2                      ; BR IF LEN=0
31bf ce c2 35                   DEC          CCBBLN+1                  ; DEC LEN (HIGH)
31c2 ce c1 35   DTB1            DEC          CCBBLN                    ; DEC LEN (LOW)
31c5 60                         RTS                                    ; DONE
                ;
31c6 4c 7f 33   DTB2            JMP          GOODIO                    ; FINISHED BLOCK
                
                ; ####################################################################################################
                ; #   END OF FILE:  FLOCNXB
                ; #   LINES      :  280
                ; #   CHARACTERS :  12148
                ; #   Formatter  :  Assembly Language Reformatter 1.0.2 (07 January 1998)
                ; ####################################################################################################
                ; ####################################################################################################
                ; #   PROJECT  :  APPLE ][ DOS 3.3 C SOURCE CODE LISTING -- (C) APPLE COMPUTER INC. JULY 1983
                ; #   FILE NAME:  FLOCSEC
                ; ####################################################################################################
                
                ;;;                PAGE
                ;
                ;FNDFIL - FIND FILE NAME IN VOLUUME DIR
                ;
                FNDFIL          EQU          *
31c9 20 f7 2f                   JSR          RDVTOC                    ; GO GET VTOC
31cc ad c3 35                   LDA          CCBFN1                    ; MOVE FN PTR
31cf 85 42                      STA          ZPGFCB                    ; TO ZERO PAGE
31d1 ad c4 35                   LDA          CCBFN1+1
31d4 85 43                      STA          ZPGFCB+1
31d6 a9 01                      LDA          #1
31d8 8d 9d 33   FF1             STA          TEMP2
31db a9 00                      LDA          #0
31dd 8d d8 35                   STA          DCBVDR
31e0 18                         CLC
                FF2             EQU          *
31e1 ee d8 35                   INC          DCBVDR
31e4 20 11 30                   JSR          RDVDIR                    ; GO GET VDIR SECTOR
31e7 b0 51                      BCS          FF4A
31e9 a2 00                      LDX          #0                        ; SET FOR 1ST FILE
                ;
31eb 8e 9c 33   FF3             STX          TEMP1                     ; SAVE INDEX
31ee bd c6 34                   LDA          VDFILE,X                  ; GET FILE TRK
31f1 f0 1f                      BEQ          FF6                       ; BR IF LAST ENTRY
31f3 30 22                      BMI          FF7                       ; BR DELETED ENTRY
31f5 a0 00                      LDY          #0                        ; X=X+3
31f7 e8                         INX
31f8 e8                         INX
31f9 e8         FF4             INX
31fa b1 42                      LDA          (ZPGFCB),Y                ; GET FN CHAR
31fc dd c6 34                   CMP          VDFILE,X                  ; COMPARE TO ENTRY CHAR
31ff d0 0a                      BNE          FF5                       ; BR IF NOT SAME
3201 c8                         INY
3202 c0 1e                      CPY          #30                       ; ALL 30 CHARS
3204 d0 f3                      BNE          FF4                       ; BR IF NOT
3206 ae 9c 33                   LDX          TEMP1                     ; GET INDEX
3209 18                         CLC                                    ; FILE FOUND
320a 60                         RTS                                    ; RETURN
                ;
                FF5             EQU          *
320b 20 30 32                   JSR          VDINC
320e 90 db                      BCC          FF3
3210 b0 cf                      BCS          FF2
                ;
3212 ac 9d 33   FF6             LDY          TEMP2                     ; LOOKING FOR DELETED
3215 d0 c1                      BNE          FF1                       ; BR IF NOT (DO)
                ;
3217 ac 9d 33   FF7             LDY          TEMP2                     ; LOOKING FOR EMPTY
321a d0 ef                      BNE          FF5                       ; BR IF NOT
                ;
                MVFN            EQU          *
321c a0 00                      LDY          #0                        ; HAVE NEW ENTTRY
321e e8                         INX
321f e8                         INX
3220 e8         FF8             INX
3221 b1 42                      LDA          (ZPGFCB),Y                ; MOVE FILE NAME
3223 9d c6 34                   STA          VDFILE,X
3226 c8                         INY
3227 c0 1e                      CPY          #30
3229 d0 f5                      BNE          FF8
                ;
322b ae 9c 33                   LDX          TEMP1                     ; GET INDEX
322e 38                         SEC                                    ; SET NOT OLD
322f 60                         RTS                                    ; DONE
                VDINC           EQU          *
3230 18                         CLC
3231 ad 9c 33                   LDA          TEMP1
3234 69 23                      ADC          #35
3236 aa                         TAX
3237 e0 f5                      CPX          #VDFLEN
3239 60                         RTS
                FF4A            EQU          *
323a a9 00                      LDA          #0
323c ac 9d 33                   LDY          TEMP2
323f d0 97                      BNE          FF1
3241 4c 77 33                   JMP          ERROR9
                ;;;                PAGE
                ;
                ;GETSEC - GET A SECTOR
                ;
                GETSEC          EQU          *
3244 ad f1 35                   LDA          DCBATK                    ; GET ALLOCATED TRK
3247 f0 21                      BEQ          GSS1                      ; BR IF NONE
                ;
                GS0             EQU          *
3249 ce f0 35                   DEC          DCBALS                    ; DECREMENT SECTOR NO
324c 30 17                      BMI          CS2                       ; BR IF NO SECTORS REM
                ;
324e 18                         CLC
324f a2 04                      LDX          #4                        ; 4 BYTE SHIFT
3251 3e f1 35   GS1             ROL          DCBABM-1,X                ; SHIFT BYTE LEFT
3254 ca                         DEX
3255 d0 fa                      BNE          GS1
3257 90 f0                      BCC          GS0                       ; BR IF NO SECTOR
                ;
3259 ee ee 35                   INC          DCBNSA
325c d0 03                      BNE          GS1A
325e ee ef 35                   INC          DCBNSA+1
                GS1A            EQU          *
3261 ad f0 35                   LDA          DCBALS                    ; GET ALLOCATED SECTOR
3264 60                         RTS                                    ; RETURN
                ;
3265 a9 00      CS2             LDA          #0                        ; CLEAR ALLOCATED
3267 8d f1 35                   STA          DCBATK                    ; TRK
                ;
326a a9 00      GSS1            LDA          #0                        ; SET SEARCH STATE=0
326c 8d 9e 33                   STA          TEMP3
326f 20 f7 2f                   JSR          RDVTOC                    ; GET VTOC
                ;
                GS2             EQU          *
3272 18                         CLC
3273 ad eb 33                   LDA          VALCA1                    ; GET LAST ALLOCATTED TRK
3276 6d ec 33                   ADC          VALCA2                    ; AD (+1) OR (-1)
3279 f0 09                      BEQ          GS3                       ; BR IF DECK TO ZERO
327b cd ef 33                   CMP          VNOTRK
327e 90 14                      BCC          GS5                       ; BR IF NOT AT OUTER LIMIT
3280 a9 ff                      LDA          #$FF                      ; SET (-1)
3282 d0 0a                      BNE          GS4
3284 ad 9e 33   GS3             LDA          TEMP3                     ; GET SEARCH STATE
3287 d0 37                      BNE          ERR9                      ; BR IF NOT ZERO
3289 a9 01                      LDA          #1                        ; SET (+1)
328b 8d 9e 33                   STA          TEMP3                     ; SET SEARCH STATE = 1
328e 8d ec 33   GS4             STA          VALCA2                    ; SET NEW (+1) OR -1)
3291 18                         CLC
3292 69 11                      ADC          #17                       ; ADD VTOC TRK NO
3294 8d eb 33   GS5             STA          VALCA1                    ; SET NEW LAST ALLOCATED
3297 8d f1 35                   STA          DCBATK                    ; PUT IN DCB
                ;
329a a8                         TAY                                    ; ALLOCATED TRACK
329b 0a                         ASL          A                         ; TIME 4
329c 0a                         ASL          A
329d a8                         TAY
329e a2 04                      LDX          #4
32a0 18                         CLC
32a1 b9 f6 33   GS6             LDA          VSECAL+3,Y                ; MOVE BIT MAP BYTE
32a4 9d f1 35                   STA          DCBABM-1,X
32a7 f0 06                      BEQ          GS7                       ; BR IF NO BITS ON
32a9 38                         SEC                                    ; SET HAVE A SECTOR
32aa a9 00                      LDA          #0                        ; CLEAR VTOC BYTE
32ac 99 f6 33                   STA          VSECAL+3,Y
32af 88         GS7             DEY
32b0 ca                         DEX
32b1 d0 ee                      BNE          GS6                       ; BR IF MORE TO MOVE
32b3 90 bd                      BCC          GS2
32b5 20 fb 2f                   JSR          WRVTOC                    ; GO WRITE VTOC
32b8 ad f0 33                   LDA          VNOSEC                    ; GET NO SECTORS
32bb 8d f0 35                   STA          DCBALS                    ; SET IN DCB SECTOR BYTE
32be d0 89                      BNE          GS0                       ; GO ALLOCATED SECTOR
32c0 4c 77 33   ERR9            JMP          ERROR9
                ;;;                PAGE
                ;
                ;FRETRK - FREE TRACK OF SECTORS
                ;
                FRETRK          EQU          *
32c3 ad f1 35                   LDA          DCBATK                    ; GET ALLOCATED TRACK
32c6 d0 01                      BNE          FT1                       ; BR IF NONE
32c8 60                         RTS                                    ; DONE
32c9 48         FT1             PHA
32ca 20 f7 2f                   JSR          RDVTOC                    ; GET VTOC
32cd ac f0 35                   LDY          DCBALS                    ; GET SECTOS
32d0 68                         PLA                                    ; GET TRACK
32d1 18                         CLC                                    ; SET FREE
32d2 20 dd 32                   JSR          FRESEC                    ; GO FREE
32d5 a9 00                      LDA          #0                        ; CLEAR ALLOCATED TRK
32d7 8d f1 35                   STA          DCBATK
32da 4c fb 2f                   JMP          WRVTOC                    ; WRITE VTOC
                ;
                ;FRESEC - FREE A SECTOR
                ;A=TRK, Y=SECTOR, C=ON/OFF
                ;
                FRESEC          EQU          *
32dd a2 fc      FS1             LDX          #252                      ; 4 BYTE SHIFT
32df 7e f6 34   FS2             ROR          DCBABM-252,X              ; SHIFT IN CARRY
32e2 e8                         INX                                    ; NEXT BYTE
32e3 d0 fa                      BNE          FS2                       ; BR IF NOT DONE
32e5 c8                         INY                                    ; INC SECTOR NO
32e6 cc f0 33                   CPY          VNOSEC                    ; NORMAL
32e9 d0 f2                      BNE          FS1                       ; BR IF NOT
                ;
32eb 0a                         ASL          A                         ; TRACK*4
32ec 0a                         ASL          A
32ed a8                         TAY
32ee f0 0f                      BEQ          FS4
32f0 a2 04                      LDX          #4
32f2 bd f1 35   FS3             LDA          DCBABM-1,X                ; GET BIT MAP BYTE
32f5 19 f6 33                   ORA          VSECAL+3,Y                ; OR WITH VTOC BM
32f8 99 f6 33                   STA          VSECAL+3,Y
32fb 88                         DEY
32fc ca                         DEX
32fd d0 f3                      BNE          FS3
32ff 60         FS4             RTS                                    ; DONE
                ;;;                PAGE
                ;
                ;LOCSEC - LOCATE SECTOR FOR RECORD I/O
                ;
                ;RELSEC = (REL REC * RECLEN + RELBYTE)/256
                ;SECBYT = REMAINDER
                ;
                LOCSEC          EQU          *
3300 ad bd 35                   LDA          CCBRRN                    ; RELATIVE RECORD NUMBER
3303 8d e6 35                   STA          DCBCSB                    ; TO CSB FOR MULT
3306 8d ea 35                   STA          DCBCRR                    ; AND CRR FOR SAVE
3309 ad be 35                   LDA          CCBRRN+1
330c 8d e4 35                   STA          DCBCRS
330f 8d eb 35                   STA          DCBCRR+1
3312 a9 00                      LDA          #0
3314 8d e5 35                   STA          DCBCRS+1                  ; HIGH CRS=0
3317 a0 10                      LDY          #16                       ; 16 BIT MULT
                ;
3319 aa         LS1             TAX                                    ; SAVE MS BYTE
331a ad e6 35                   LDA          DCBCSB
331d 4a                         LSR          A                         ; IF NO CARRY THEN NO PART PROD
331e b0 03                      BCS          LS1A
3320 8a                         TXA
3321 90 0e                      BCC          LS2
3323 18         LS1A            CLC
3324 ad e5 35                   LDA          DCBCRS+1                  ; FPORM PARTIAL PROD
3327 6d e8 35                   ADC          DCBRCL
332a 8d e5 35                   STA          DCBCRS+1
332d 8a                         TXA
332e 6d e9 35                   ADC          DCBRCL+1
                ;
3331 6a         LS2             ROR          A                         ; MULT BY 2
3332 6e e5 35                   ROR          DCBCRS+1
3335 6e e4 35                   ROR          DCBCRS
3338 6e e6 35                   ROR          DCBCSB
333b 88                         DEY                                    ; DEC BIT COUNT
333c d0 db                      BNE          LS1                       ; BR IF MORE BITS
                ;
                ;;;                DO           DOS33B
333e 18                         CLC                                    ; FOR FILE LENGTH > $7FFF BYTES
                ;;;                FIN
333f ad bf 35                   LDA          CCBBYT                    ; ADD REL BYTE RESULT
3342 8d ec 35                   STA          DCBCRB                    ; (SAVE REL BYTE)
3345 6d e6 35                   ADC          DCBCSB
3348 8d e6 35                   STA          DCBCSB
334b ad c0 35                   LDA          CCBBYT+1
334e 8d ed 35                   STA          DCBCRB+1                  ; (SAVE REL BYTE)
3351 6d e4 35                   ADC          DCBCRS
3354 8d e4 35                   STA          DCBCRS
                ;;;                DO           DOS33B
3357 90 03                      BCC          DONTINC
3359 ee e5 35                   INC          DCBCRS+1
335c 60         DONTINC         RTS
335d 00 00                      DS           2,$00
                ;;;                ELSE
                ;;;                LDA          #0
                ;;;                ADC          DCBCRS+1
                ;;;                STA          DCBCRS+1
                ;;;                RTS
                ;;;                FIN
                ;;;                PAGE
335f a9 01      ERROR1          LDA          #CREFUN
3361 d0 22                      BNE          ERRORA
3363 a9 02      ERROR2          LDA          #CRERR
3365 d0 1e                      BNE          ERRORA
3367 a9 03      ERROR3          LDA          #CREMRE
3369 d0 1a                      BNE          ERRORA
336b a9 04      ERROR4          LDA          #CREPRO
336d d0 16                      BNE          ERRORA
336f a9 05      ERROR5          LDA          #CREEOF
3371 d0 12                      BNE          ERRORA
3373 a9 06      ERROR6          LDA          #CREFNF
3375 d0 0e                      BNE          ERRORA
3377 4c ed 3f   ERROR9          JMP          ERROR9X                   ;MUST CLOSE ALL FILES (WAS LDA #CRENSA)
337a ea                         NOP
337b a9 0a      ERRR10          LDA          #CREFLK
337d d0 06                      BNE          ERRORA
337f ad c5 35   GOODIO          LDA          CCBSTA
3382 18                         CLC                                    ; CARRY=CLR
3383 90 01                      BCC          RETURN                    ; GO RETURN
                ERRORA          EQU          *
3385 38         ERRORB          SEC                                    ; CARRY=SET
                RETURN          EQU          *
3386 08                         PHP
3387 8d c5 35                   STA          CCBSTA                    ; SET STA
338a a9 00                      LDA          #0                        ;(FIX FOR APPLE SYS MONITOR $48 USED BY RWTS)
338c 85 48                      STA          $48                       ;(THIS ADDED 11/1/78)
338e 20 7e 2e                   JSR          RTNFCB                    ; GO RTN FCB
3391 28                         PLP                                    ; GET STATUS
3392 ae 9b 33                   LDX          ENTSTK                    ; GET ENT STACK
3395 9a                         TXS                                    ; RESTORE STACK
3396 60                         RTS                                    ; DONE
                EC2             EQU          *
                
                ; ####################################################################################################
                ; #   END OF FILE:  FLOCSEC
                ; #   LINES      :  284
                ; #   CHARACTERS :  12221
                ; #   Formatter  :  Assembly Language Reformatter 1.0.2 (07 January 1998)
                ; ####################################################################################################
                ; ####################################################################################################
                ; #   PROJECT  :  APPLE ][ DOS 3.3 C SOURCE CODE LISTING -- (C) APPLE COMPUTER INC. JULY 1983
                ; #   FILE NAME:  FVCBUFS
                ; ####################################################################################################
                
                ;;;                PAGE
                ;MISC DOS WORK CELLS
                ;
3397 00         CVDTRK          DFB          0                         ; CUR VOL DIR TRK
3398 00         CVDSEC          DFB          0                         ; CUR VOL DIR SECTOR
3399 00 00      CURCCB          DFB          0,0                       ; CURRENT CCB ADR
339b 00         ENTSTK          DFB          0                         ; ENTRY STACK POINTER
339c 00         TEMP1           DFB          0                         ; TEMP BYTE1
339d 00         TEMP2           DFB          0                         ; TEMP BYTE 2
339e 00         TEMP3           DFB          0                         ; TEMP BYTE 3
339f 00         ENTSLT          DFB          0                         ; BOOT SLOT SAVED
33a0 00 00 ff   ALC10S          DFB          0,0,$FF,$FF               ; ALLOCATATION TRACK BIT MAP
33a3 ff
33a4 01 0a 64   CVTAB           DFB          1,10,100                  ; CONVERSION TABLE
                ;;;                MSB          ON
33a7 d4 c9 c1   FTTAB           ASC          "TIAB" ; FILE TYPE CONVERSION TABLE"
33aa c2
33ab d3 d2 c1                   ASC          "SRAB"
33ae c2
33af a0 c5 cd   VOLMES          ASC          " EMULOV KSID" ; "DISK VOLUME " BACKWARDS "
33b2 d5 cc cf
33b5 d6 a0 cb
33b8 d3 c9 c4
                ;;;                MSB          OFF
                VML             EQU          *-VOLMES-1
                ;;;                PAGE
                ;VTOC RECORD AREA
                VTOC            EQU          *
33bb 04         VDOST           DFB          4                         ; DOS TYPE
33bc 11         VDIRTK          DFB          17                        ; COLUME DIRECTORY SECTOR
33bd 0f         VDIRSC          DFB          15                        ; VOLUME DIRECTORY SECTOR
33be 04         VDOSRN          DFB          4                         ; DOS RELEASE NUMBER
33bf 00                         DFB          0                         ; SPARE
33c0 00                         DFB          0                         ; SPARE
33c1 fe         VVOLNO          DFB          $FE                       ; VOLUME NUMBER
                                DS           32                        ; SPARE
                
33e2 7a         VTDMS           DFB          122                       ; MAX SECTORS IN A FILE DIR
                VSPARE          DS           8                         ; SPARES
                ;
33eb 11         VALCA1          DFB          17                        ; ALOCATION ALGORITHM BYTE 1
33ec 01         VALCA2          DFB          1                         ; AA BYTE2
33ed 00         VALCA3          DFB          0                         ; AA BYTE3
33ee 00         VALCA4          DFB          0                         ; AA BYTE4
33ef 23         VNOTRK          DFB          35                        ; NO TRACKS ON VOL
33f0 10         VNOSEC          DFB          16                        ; NO SECTORS PER TRACK
33f1 00 01      VSECLN          DW           256                       ; NO. BYTES PER SECTOR
                ;
                VSECAL          EQU          *                         ; SECTOR ALLOCATION AREA
                ;SECTORS ALLOCATED BY BIT MAP
                ;4 BYTES OF BITS PER TRACK
                ;LEFT MOST BIT REPRESENTS SECTOR N
                ;WHERE N=NO SECTORS PER TRACK
                ;
                ;
                ;;;                PAGE
                                ORG          VTOC+256
                ;
                ;VOLUME DIRECTORY AREA
                ;
                VOLDIR          EQU          *
34bb 02         VDTCDE          DFB          2                         ; VOLUME DIRECTORY TYPE CODE
                VDLTRK          DS           1                         ; VD LINK TRACK
                VDLSEC          DS           1                         ; VD LINK SECTOR
                VDNF            DS           1                         ; VD NUMBER FILES THIS SECTOR
                VDSPAR          DS           7                         ; SPARES
                ;
                VDFILE          EQU          *                         ; FILE ALLOCATION AREA (7 FILES)
                ;EACH FILE:
                ;FILE DIR TRK
                ;FILE DIR SECTOR
                ;FILE USE CODE
                ;FILE NAME (30)
                ;FILE SECTOR COUNT (2)
                                ORG          VOLDIR+256
                VDEND           EQU          *
                VDLEN           EQU          *-VOLDIR
                VDFLEN          EQU          *-VDFILE
                ;
                ;;;                PAGE
                ;
                ;COMMAND CONTROL BLOCK (CCB)
                ;
                CCB             EQU          *
                CCBREQ          DS           1                         ; USER REQUEST BYTE
                CRQNUL          EQU          0                         ; 0-NO REQUEST
                CRQOPN          EQU          1                         ; 1-OPEN FILE
                CRQCLS          EQU          2                         ; 2-CLOSE FILE
                CRQRD           EQU          3                         ; 3-READ DATA
                CRQWR           EQU          4                         ; WRITE DATA
                CRQDEL          EQU          5                         ; 5-DELETE FILE
                CRQDIR          EQU          6                         ; 6-READ DIRECTORY
                CRQLCK          EQU          7                         ; 7-LOCK FILE
                CRQUNL          EQU          8                         ; 8-UNLOCK FILE
                CRQRNM          EQU          9                         ; 9-RENAME
                CRQPOS          EQU          10                        ; 10-POSITION FILE
                CRQFMT          EQU          11                        ; 11-FORMAT
                CRQVAR          EQU          12                        ; 12 - VERIFY
                CRQMAX          EQU          13
                ;
                CCBBSA          EQU          *                         ; FORMAT - BOOT START ADR PAGE
                CCBRQM          DS           1                         ; RREQUEST MODIFIER BYTE
                CRMNUL          EQU          0                         ; NO MODIFIER
                CRMNBT          EQU          1                         ; R/W - 1 - NEXT BYTE
                CRMNBL          EQU          2                         ; R/W - 2 - NEXT BLOCK
                CRMSBT          EQU          3                         ; R/W - 3 - SPECIFC BYTE
                CRMSBL          EQU          4                         ; R/W - 4 - SPECIFIC BLOCK
                CRMMAX          EQU          5
                ;
                CCBRRN          EQU          *                         ; I/O - RELATIVE RECORD NUMBER
                CCBFN2          EQU          *                         ; RENAME - FILE NAME 2 PTR
                CCBRLN          DS           2                         ; OPEN - RECORD LENGTH
                ;
                CCBBYT          EQU          *                         ; I/O - RELATIVE BYTE NO (2 BYTES)
                CCBVOL          DS           1                         ; OPEN - VOL NO.
                CCBDRV          DS           1                         ; OPEN - DRIVE
                ;
                CCBBLN          EQU          *                         ; I/O - BLOCK LENGTH (2 BYTES)
                CCBSLT          DS           1                         ; OPEN - SLOT NO
                CCBFUC          DS           1                         ; OPEN - FILE USE CODE
                ;
                CCBFN1          EQU          *                         ; OPEN, DELETE, LOCK, UNLOCK, RENAME - FILENAME P
                CCBBBA          EQU          *                         ; BLOCKK I/O - BLOCK BUFFER PTR
                CCBDAT          DS           2                         ; BYTE I/O - DATA BYTE
                ;
                CCBSTA          DS           1                         ; RESULT STATUS
                CREFUN          EQU          1                         ; FCB UNALLOCATED
                CRERR           EQU          2                         ; CCB REQ RANGE ERR
                CREMRE          EQU          3                         ; REQ MOD RANGE ERR
                CREPRO          EQU          4                         ; WRITE PROTECT
                CREEOF          EQU          5                         ; END OF FILE ON READ
                CREFNF          EQU          6                         ; FILE NOT FOUND
                CREVMM          EQU          7                         ; VOL MIS MATCH
                CREIOE          EQU          8                         ; I/O ERR
                CRENSA          EQU          9                         ; NO SECTORS AVAILABLE
                CREFLK          EQU          10                        ; FILE LOCKED
                ;
                CCBSM           DS           1                         ; STATUS MODIFIER
                CCBFCB          DS           2                         ; FCB PTR
                CCBDBP          DS           2                         ; DIR BUF PTR
                CCBSBP          DS           2                         ; SECTOR BUF PTR
                CCBSPR          DS           4                         ; SPARE
                CCBLEN          EQU          *-CCB                     ; CCB LENGTH
                CFCBAD          EQU          CCBFCB
                CFCBDR          EQU          CCBDBP
                CFCBSB          EQU          CCBSBP
                ;;;                PAGE
                ;
                ;FILE CONTROL BLOCK (FCB) DEFINITION
                ;DCB - FILE DATA CONTROL BLOCK
                ;
                FCB             EQU          *
                ;
                ;DATA CONTROL BLOCK
                ;
                FCBDCB          EQU          *
                DCBFDT          DS           1                         ; 1ST FILE DIRECTORY TRACK
                DCBFDS          DS           1                         ; 1ST FILE DIRECTORY SECTOR
                DCBCDT          DS           1                         ; CURRENT FILE DIRECTORY TRACK
                DCBCDS          DS           1                         ; CURRENT FILE DIRECTORY SECTOR
                DCBWRF          DS           1                         ; WRITE REQD FLAG
                ;$80=WRITE FILE DIR
                ;$40=WRITE SECTOR DIR
                DCBTRK          DS           1                         ; SECTOR TRACK ADR
                DCBSEC          DS           1                         ; SECTOR ADR
                DCBVDR          DS           1                         ; VOL DIR REC
                DCBVDI          DS           1                         ; VOL DIR INDEX
                DCBDMS          DS           2                         ; MAX NO DIRECTORY SECTORS
                DCBDFS          DS           2                         ; CURRENT DIR 1ST REL SECTOR
                DCBDNF          DS           2                         ; REL SECTOR OF NXT DIR
                DCBCMS          DS           2                         ; SECTOR CURRENTLY IN MEMORY
                DCBSDL          DS           2                         ; SECTOR DATA LENGTH
                DCBCRS          DS           2                         ; CURRENT RELATIVE SECTOR
                DCBCSB          DS           2                         ; CURRENT SECTOR BYTE
                DCBRCL          DS           2                         ; RECORD LENGTH
                DCBCRR          DS           2                         ; CURRENT RELATIVE REC
                DCBCRB          DS           2                         ; CURRENT RELATIVE BYTE
                DCBNSA          DS           2                         ; NO SECTORS ALLOCATED
                ;
                DCBALS          DS           1                         ; ALLOCATION SECTOR BYTE
                DCBATK          DS           1                         ; ALLOCATION TRACK
                DCBABM          DS           4                         ; ALLOCATION TRACK SECTOR BIT MAP
                ;
                DCBFUC          DS           1                         ; FILE USE CODE
                DCBSLT          DS           1                         ; SLOT NUMBER
                DCBDRV          DS           1                         ; DRIVE NUMBER
                DCBVOL          DS           1                         ; VOLUME DRIVER
                DCBVTN          DS           1                         ; VTOC TRACK NUMBER
                ;
                DCBSPR          DS           3                         ; SPARES
                ;
                DCBLEN          EQU          *-FCBDCB                  ; DCB LENGTH
                FCBLEN          EQU          *-FCB                     ; FCB LENGTH
                ;
                
                ; ####################################################################################################
                ; #   END OF FILE:  FVCBUFS
                ; #   LINES      :  187
                ; #   CHARACTERS :  9792
                ; #   Formatter  :  Assembly Language Reformatter 1.0.2 (07 January 1998)
                ; ####################################################################################################
                ; ####################################################################################################
                ; #   PROJECT  :  APPLE ][ DOS 3.3 C SOURCE CODE LISTING -- (C) APPLE COMPUTER INC. JULY 1983
                ; #   FILE NAME:  BOOTLDR
                ; ####################################################################################################
                
                ;;;                SBTL         '16-SECTOR DOS BOOT'
                HERE3L          EQU          >*
                REMDR3          EQU          256-HERE3L
                                ORG          *+REMDR3
                TRK0LDR         EQU          *
                ;;;                DO           >TRK0LDR
                ;;;                ???                                    ;DELIBERATE ERROR IF NOT AT PAGE BOUNDARY
                ;;;                FIN
                ***************************
                *                         *
                * 16-SECTOR DOS BOOTSTRAP *
                *                         *
                *     RICK AURICCHIO      *
                *       10/10/79          *
                *                         *
                ***************************
                *                         *
                * THIS PROGRAM RESIDES IN *
                *  TRACK 0, SECTOR 0 OF A *
                *  DOS DISKETTE. ITS SOLE *
                *  PURPOSE IS TO READ THE *
                *  DOS LOADER PROGRAM IN  *
                *  FROM TRACK 0, SECTORS  *
                *  1-9. CONTROL IS THEN   *
                *  TRANSFERRED TO THAT    *
                *  PROGRAM.               *
                *                         *
                * NOTE: THE DOS LOADER    *
                *  CONTAINS THE ENTIRE    *
                *  SET OF 16-SECTOR CORE  *
                *  ROUTINES; THOSE CORE   *
                *  ROUTINES ARE USED TO   *
                *  LOAD THE REST OF THE   *
                *  DOS IMAGE INTO MEMORY. *
                *                         *
                ***************************
                POINTA          EQU          $26                       ;BUFFER POINTER
                BSLOT           EQU          $2B                       ;BOOT BSLOT
                BSECTR          EQU          $3D                       ;LAST BSECTR READ
                BTEMP           EQU          $3E                       ;ADDRESS BTEMP
                BRETRY          EQU          $5C                       ;OFFSET TO READER
                *
                MONINIT         EQU          $FB2F                     ;MONINIT SCREEN
                BHERE3          EQU          >*
                BOOTCNT         EQU          $800+BHERE3
3600 01                         DFB          01
                ;;;                PAGE
3601 a5 27                      LDA          POINTA+1                  ;WHERE DID BSECTR GET LOADED?
3603 c9 09                      CMP          #09                       ; (AT 0800)?
3605 d0 18                      BNE          READNEXT                  ;=>NO. WE'RE LOADING SOMETHING
                * WE'VE BEEN BOOTED. SET UP
                *  PARAMS FOR BOOT PROM SO
                *  THAT WE'LL READ IN TRACK 0,
                *  BSECTRS 00-09.
3607 a5 2b                      LDA          BSLOT                     ;GET BOOT BSLOT
3609 4a                         LSR          A                         ;CONVERT TO CX00
360a 4a                         LSR          A
360b 4a                         LSR          A
360c 4a                         LSR          A
360d 09 c0                      ORA          #$C0
360f 85 3f                      STA          BTEMP+1
3611 a9 5c                      LDA          #BRETRY                   ;PROM ROUTINE OFFSET
3613 85 3e                      STA          BTEMP
3615 18                         CLC                                    ;BUMP LOAD ADDRESS UP TO
3616 ad fe 08                   LDA          LOADADDR+1                ; LAST PAGE SO WE
3619 6d ff 08                   ADC          BGRPGC                    ;  CAN LOAD 'EM BACKWARDS...
361c 8d fe 08                   STA          LOADADDR+1
                * READ IN ANOTHER BSECTR FROM
                *  TRACK ZERO...
361f ae ff 08   READNEXT        LDX          BGRPGC
3622 30 15                      BMI          GOLOADER                  ;=>ALL DONE...EXECUTE IT!
3624 bd 4d 08                   LDA          TABLE,X                   ;GET PHYSICAL BSECTR NUMBER
3627 85 3d                      STA          BSECTR                    ; AND SET FOR BOOT PROM READ
3629 ce ff 08                   DEC          BGRPGC                    ;ONE LESS BELL TO ANSWER..
362c ad fe 08                   LDA          LOADADDR+1                ;GET LOAD ADDRESS
362f 85 27                      STA          POINTA+1                  ; FOR BSECTR READ
3631 ce fe 08                   DEC          LOADADDR+1                ;MOVE LOAD ADDRESS DOWN A PAGE
3634 a6 2b                      LDX          BSLOT                     ;RESTORE BSLOT NUMBER
3636 6c 3e 00                   JMP          (BTEMP)                   ;READ MORE OF TRACK 0
3639 ee fe 08   GOLOADER        INC          LOADADDR+1                ;ENTRY AT SECOND PAGE
363c ee fe 08                   INC          LOADADDR+1
363f 20 89 fe                   JSR          SETKBD                    ;CLEAR IN#X
3642 20 93 fe                   JSR          SETVID                    ; AND PR#X
3645 20 2f fb                   JSR          MONINIT                   ;MONINIT THE SCREEN PARAMS
3648 a6 2b                      LDX          BSLOT                     ;PASS BSLOT NBR TO LOADER
364a 6c fd 08                   JMP          (LOADADDR)                ;OFF TO LOOADER!
                * TABLE OF PHYSICAL BSECTR NUMBERS
                *  WHICH CORRESPOND TO THE LOGICAL
                *  BSECTRS 0-F ON TRACK ZERO...
                BHERE2          EQU          >*
                TABLE           EQU          $800+BHERE2
364d 00 0d 0b                   DFB          $00,13,11                 ;00->00,01->13,02->11
3650 09 07 05                   DFB          09,07,05                  ;03->09,04->07;05->05
3653 03 01 0e                   DFB          03,01,14                  ;06->03,07->01,08->14
3656 0c 0a 08                   DFB          12,10,08                  ;09->12,10->10,11->08
3659 06 04 02                   DFB          06,04,02,15               ;12->6,13->04,14->02,15->15
365c 0f
                ;;;                PAGE
                ;;;                REP          40
                * APPEND BUG PATCHES
                ****************************
                SC3             EQU          *
365d 00         EOFFLAG         DFB          0
                CLOSFILE        EQU          *
365e 20 64 27                   JSR          FILSRC                    ;FILE BUFFER FOUND?
3661 b0 08                      BCS          NOTFOUND                  ;=> NO, SO SKIP IT.
3663 a9 00                      LDA          #0                        ;YES, CLOSE IT
3665 a8                         TAY
3666 8d 5d 36                   STA          EOFFLAG
3669 91 40                      STA          (ZPGWRK),Y                ;RIGHT NOW
366b ad c5 35   NOTFOUND        LDA          CCBSTA                    ;ORIGINAL INSTRUCTION
366e 4c d2 26                   JMP          ERROR                     ;BACK TO ERROR HANDLER
                ****************************
                BUMPER          EQU          *
3671 ad 5d 36                   LDA          EOFFLAG                   ;SHOULD WE?
3674 f0 08                      BEQ          GOBACK                    ;=> NO
3676 ee bd 35                   INC          CCBRRN                    ;BUMP CCB RECORD NUMBER
3679 d0 03                      BNE          GOBACK
367b ee be 35                   INC          CCBRRN+1                  ;TO GET TO NEXT SECTOR
367e a9 00      GOBACK          LDA          #0
3680 8d 5d 36                   STA          EOFFLAG                   ;TURN FLAG OFF
3683 4c 84 3a                   JMP          FIXIT2                    ;Go to FIXIT2 as exit
                ;;;                REP          40
                VPATCH          EQU          *
3686 8d bc 35                   STA          CCBRQM                    ;ORIGINAL INSTRUCTION
3689 20 a8 26                   JSR          DOSGO                     ;GO SAVE
368c 20 ea 22                   JSR          ECLOSE                    ;CLOSE THE FILE
368f 4c 7d 22                   JMP          EVAR                      ;GO VERIFY IT AFTER SAVE
                ****************************
                EOFFIX          EQU          *
3692 a0 13                      LDY          #$13                      ;PEEK INTO THE FCB: IF
3694 b1 42      CHKFILE         LDA          (ZPGFCB),Y                ;DCBCRS,DCBCSB ARE ZEROS,
3696 d0 14                      BNE          FIXIT                     ; THEN WE HAVE EMPTY FILE
3698 c8                         INY
3699 c0 17                      CPY          #$17
369b d0 f7                      BNE          CHKFILE
369d a0 19                      LDY          #$19
369f b1 42      MOVE            LDA          (ZPGFCB),Y                ; DCBCRR,DCBCRB
36a1 99 a4 35                   STA          CCBRRN-$19,Y              ;INTO CCBRRN,CCBBYT
36a4 c8                         INY
36a5 c0 1d                      CPY          #$1D
36a7 d0 f6                      BNE          MOVE
36a9 4c bb 26   BACK            JMP          DOSGO2A                   ;NOW LET APPEND CONTINUE
                FIXIT           EQU          *
36ac a2 ff                      LDX          #$FF                      ;SET FLAG SO APPEND WILL
36ae 8e 5d 36                   STX          EOFFLAG                   ;KNOW TO CROSS SECTOR BOUNDARY
36b1 d0 f6                      BNE          BACK                      ;ALWAYS TAKEN
                ;;;                PAGE
                ;;;                REP          40
                * END OF BOOT PAGE DATA SETUP
                ;;;                REP          40
                *
                * FIXIT2 was developed to fix the wrap around
                * problem APPEND has when trying to APPEND to
                * a sequential file which is >255 sectors in length.
                *
                *                  Fix by
                *
                *              Fern Bachman
                *               Guil Banks
                *           September 28, 1982
                *
                * Fix to fix added to correctly APPEND to a sector
                * 255 bytes in length
                *
                *                    by
                *                Guil Banks
                *               July 11, 1983
                *
                ;;;                REP          30
                ;;;                SKP          1
                ;;;;FIXIT2          EQU          *
                ;;;;;                LDA          CCBRLN                    ;Current record length lo
                ;;;;;                STA          DCBCSB                    ;Current sector byte
                ;;;;;                STA          DCBCRR                    ;Current relative record
                ;;;;;                LDA          CCBRLN+1                  ;Do hi as well
                ;;;;;                STA          DCBCSB+1
                ;;;;;                STA          DCBCRR+1
                ;;;;;                STA          DCBCRS                    ;Set current relative sector
                ;;;;;                TSX
                ;;;;;                STX          ENTSTK
                ;;;;;                JMP          GOODIO
                ;;;                SKP          2
                ;;;                REP          30
                *
                *   Upper/Lower case patch
                *   for DOS 3.3C and BASIC
                *
                *            by
                *        Guil Banks
                *        Mark Houde
                *
                ;;;                REP          30
                *
                * This routine converts all characters
                * that are not between quotes to
                * upper case and returns them to the
                * input buffer ($200). This works with
                * DOS, Integer & Applesoft.
                *
                * Upon entry -
                *
                *              X Reg = 0
                *
                * Upon exit  -
                *
                *              Y Reg = $FF
                *              ACCUM = $8D
                *              X Reg = unknown
                *
                ;;;                REP          30
                ;;;                DO           ULC
                ;;;UPRCASE         EQU          *
                ;;;LUP1            LDA          LBUFF,X                   ;Get a char
                ;;;                CMP          #'"+$80                   ;Is it a quote?
                ;;;                BNE          CHK4UC                    ;=> if not
                ;;;LUP2            INX                                    ;Bump to next char
                ;;;                LDA          LBUFF,X                   ;Get it
                ;;;                CMP          #'"+$80                   ;Closing quote?
                ;;;                BEQ          NEXTCHR                   ;=> if so
                ;;;                CMP          #$8D                      ;End of line?
                ;;;                BNE          LUP2                      ;=> if not
                ;;;ULFINI          LDY          #$FF                      ;Do what DOS wants
                ;;;                STY          CMDNO
                ;;;                RTS                                    ;   & exit
                ;;;CHK4UC          EQU          *
                ;;;                CMP          #$E0                      ;Upper case?
                ;;;                BCC          CHK4CR                    ;=> if not
                ;;;                AND          #$DF                      ;Make upper case
                ;;;                STA          LBUFF,X                   ;   & restore
                ;;;CHK4CR          CMP          #$8D                      ;End of input?
                ;;;                BEQ          ULFINI                    ;=> if so
                ;;;NEXTCHR         INX                                    ;Bump to next char
                ;;;                BNE          LUP1                      ;=> always
                ;;;                FIN
                ;;;                SKP          1
                BHERE1          EQU          >*
36b3 00 00 00                   DS           $FD-BHERE1,0
36b6 00 00 00
36b9 00 00 00
36bc 00 00 00
36bf 00 00 00
36c2 00 00 00
36c5 00 00 00
36c8 00 00 00
36cb 00 00 00
36ce 00 00 00
36d1 00 00 00
36d4 00 00 00
36d7 00 00 00
36da 00 00 00
36dd 00 00 00
36e0 00 00 00
36e3 00 00 00
36e6 00 00 00
36e9 00 00 00
36ec 00 00 00
36ef 00 00 00
36f2 00 00 00
36f5 00 00 00
36f8 00 00 00
36fb 00 00
                * LOAD ADDRESS FOR CODE (PG BDY)
                * ENTRY AFTER BOOT IS AT LOADADDR+256 (SECOND PAGE LOADED)
                *
                BHERE4          EQU          >*
                LOADADDR        EQU          $800+BHERE4
36fd 00                         DFB          0
36fe 36         GRSPG           DFB          <TRK0LDR                  ;CONTAINS PAGE#-1 OF TRK 0, SEC 1 LOAD ADDRESS
                * LAST LOGICAL BSECTOR TO READ STARTING AT $00
                BHERE5          EQU          >*
                BGRPGC          EQU          $800+BHERE5
36ff 09         GRPGC           DFB          <(ENDOFDOS-TRK0LDR-$100)
                ********************
                ;;;                PAGE
                DOSLODR         EQU          *
                ;;;                DO           >DOSLODR
                ;;;                ???                                    ;ERROR IF NOT ON PAGE BOUNDARY
                ;;;                FIN
                ;;;                REP          40
                * FAST BOOT AT 2:1 INTERLEAVE
                * FOR 16-SECTOR DISKETTES
                ;;;                REP          40
3700 8e e9 37                   STX          IBSLOT                    ; SET BOOT SLOT
3703 8e f7 37                   STX          IBPSLT                    ; SET PREVIOUS SLOT
3706 a9 01                      LDA          #1                        ; SET PREV DRIVE
3708 8d f8 37                   STA          IBPDRV
370b 8d ea 37                   STA          IBDRVN
                ;
370e ad e0 37                   LDA          NDPGS                     ; COPY NO PAGES TO GET
3711 8d e1 37                   STA          BRWCNT
3714 a9 02                      LDA          #2
3716 8d ec 37                   STA          IBTRK                     ; SET TRACK 0
3719 a9 04                      LDA          #4                        ;ENDING SECTOR OF DOS IMAGE
371b 8d ed 37                   STA          IBSECT                    ;TO IOB
371e ac e7 37                   LDY          ADOSLD+1                  ;END PAGE OF DOS IMAGE
3721 88                         DEY                                    ;IS ONE LESS THAN
3722 8c f1 37                   STY          IBBUFP+1                  ;START OF DOSLDR+BOOT
                ;
3725 a9 01                      LDA          #IBCRTS                   ; SET READ
3727 8d f4 37                   STA          IBCMD
                ;
372a 8a                         TXA                                    ; SET PREV TRACK = 0
372b 4a                         LSR          A
372c 4a                         LSR          A
372d 4a                         LSR          A
372e 4a                         LSR          A
372f aa                         TAX
3730 a9 00                      LDA          #0
3732 9d f8 04                   STA          $4F8,X
3735 9d 78 04                   STA          $478,X
3738 20 93 37                   JSR          BOOTIO                    ; GO READ DOS
                ;
                ;DOSINT - INITIALIZE DOS
                ;
                DOSINT          EQU          *
373b a2 ff                      LDX          #$FF
373d 9a                         TXS
373e 8e eb 37                   STX          IBVOL
3741 4c c8 3f                   JMP          RCPATCH
3744 20 89 fe   RCBACK          JSR          SETKBD
                ;
3747 4c 03 1b   DI3             JMP          DOSREL                    ; GO TO POST INIT ROUTINE
                ;;;                PAGE
                WBOOT           EQU          *
374a ad e7 37                   LDA          ADOSLD+1
374d 38                         SEC
374e ed f1 37                   SBC          IBBUFP+1
3751 8d e1 37                   STA          BRWCNT                    ;COMPUT PAGE COUNT
3754 ad e7 37                   LDA          ADOSLD+1
3757 8d f1 37                   STA          IBBUFP+1                  ;BUFFER=LAST PAGE OF RWTS
375a ce f1 37                   DEC          IBBUFP+1
375d a9 02                      LDA          #2                        ;ENDING TRACK
375f 8d ec 37                   STA          IBTRK
3762 a9 04                      LDA          #4
3764 8d ed 37                   STA          IBSECT                    ;ENDING SECTOR
3767 a9 02                      LDA          #2
3769 8d f4 37                   STA          IBCMD                     ;COMMAND = WRITE
376c 20 93 37                   JSR          BOOTIO                    ;WRITE DOS IMAGE TRK 2,SEC 4
                *   ;           BACKWARDS TO TRK 0,SEC C
376f ad e7 37                   LDA          ADOSLD+1
3772 8d fe 36                   STA          GRSPG                     ;BOOTSTRAP LOAD ADDRESS
3775 18                         CLC
3776 69 09                      ADC          #9
3778 8d f1 37                   STA          IBBUFP+1                  ;BUFFER ADDRESS OF END OF BOOT
377b a9 0a                      LDA          #10
377d 8d e1 37                   STA          BRWCNT                    ;SECTOR COUNT TO WRITE
3780 38                         SEC
3781 e9 01                      SBC          #1
3783 8d ff 36                   STA          GRPGC                     ;BOOT LAST SECTOR #
3786 8d ed 37                   STA          IBSECT                    ;START AT END OF RWTS&BOOT
3789 20 93 37                   JSR          BOOTIO                    ;AND WRITE DOWN TO ZERO
378c 60                         RTS
378d 00 00 00                   DS           6,0                       ;FILL WITH BRKS
3790 00 00 00
                ;;;                PAGE
                BOOTIO          EQU          *
3793 ad e5 37                   LDA          BAIOB+1
3796 ac e4 37                   LDY          BAIOB
3799 20 b5 37                   JSR          DISKIO
                ;
379c ac ed 37                   LDY          IBSECT                    ; GET SECTOR
379f 88                         DEY                                    ; DECREMENT TO NEXT
37a0 10 07                      BPL          BIO1                      ;AT END OF TRACK?
37a2 a0 0f                      LDY          #15                       ;SET TO SECTOR 15
37a4 ea                         NOP
37a5 ea                         NOP
37a6 ce ec 37                   DEC          IBTRK
37a9 8c ed 37   BIO1            STY          IBSECT                    ; SET NEXT SECTOR
                ;
37ac ce f1 37                   DEC          IBBUFP+1                  ; DECREMENT BUFFER POINTER
37af ce e1 37                   DEC          BRWCNT                    ; DECREMENT PAGE COUNTER
37b2 d0 df                      BNE          BOOTIO                    ; BR IF NOT DONE
37b4 60                         RTS
                ;
                ;;;                PAGE
37b5 08         DISKIO          PHP                                    ;SAVE INTERUPT STATUS
37b6 78                         SEI                                    ;INHIBIT INTERUPT WHILE
37b7 20 00 3d                   JSR          RWTS                      ; ACCESSING DISK
37ba b0 03                      BCS          DSKERR                    ;MUST PASS BACK CARRY FLAG & INTERUPT
37bc 28                         PLP
37bd 18                         CLC
37be 60                         RTS
37bf 28         DSKERR          PLP                                    ;CARRY SET MEANS ERROR
37c0 38                         SEC
37c1 60                         RTS
37c2 ad bc 35   DLDSUP          LDA          CCBBSA                    ;SET UP FOR DOS LOADER
37c5 8d f1 37                   STA          IBBUFP+1                  ;START ADDRESS
37c8 a9 00                      LDA          #0
37ca 8d f0 37                   STA          IBBUFP
37cd ad f9 35                   LDA          DCBVOL                    ;INVERT VOLUME NUMBER
37d0 49 ff                      EOR          #$FF
37d2 8d eb 37                   STA          IBVOL
37d5 60                         RTS
                ;
37d6 a9 00      CLRSEC          LDA          #0                        ;CLEAR SECTOR
37d8 a8                         TAY
37d9 91 42      CS1             STA          (ZPGFCB),Y
37db c8                         INY
37dc d0 fb                      BNE          CS1
37de 60                         RTS
37df 00                         BRK
                EC3             EQU          *
37e0 1b         NDPGS           DFB          <(TRK0LDR-BEGIN)            ;CALC #PAGES IN DOS WITHOUT RWTS
37e1 00         BRWCNT          DFB          0                         ;WRK CTR FOR BOOTIO
37e2 0a                         DFB          $0A
37e3 1b                         DFB          $1B
37e4 e8 37      BAIOB           DW           IOB
37e6 00 36      ADOSLD          DW           TRK0LDR
                ;;;                PAGE
                ;
                ;IOB - INPUT / OUTPUT CONTROL BLOCK
                ;THE IOB IS USED FOR THE INTERFACE
                ;BETWEEN DOS AND THE DISK I/O ROUTINES
                ;
                IOB             EQU          *
37e8 01         IBTYPE          DFB          1                         ; IOB TYPE CODE
37e9 60         IBSLOT          DFB          6*16                      ; CONTROLLER SLOT NO.
37ea 01         IBDRVN          DFB          1                         ; DRIVE NUMBER
37eb 00         IBVOL           DFB          $00                       ; VOLUME NUMBER
37ec 00         IBTRK           DFB          0                         ; TRACK NUMBER
37ed 00         IBSECT          DFB          0                         ; SECTOR NUMBER
37ee fb 37      IBDCTP          DW           DCT
37f0 00 00      IBBUFP          DW           0                         ; POINTER TO BUFFER
37f2 00 01      IBDLEN          DW           256                       ; DATA LENGTH
37f4 00         IBCMD           DFB          0                         ; COMMAND
                IBCNUL          EQU          0                         ; 0-NULL COMMAND
                IBCRTS          EQU          1                         ; 1-READ TRACK, SECTOR
                IBCWTS          EQU          2                         ; 2-WRITE TRACK, SECTOR
                IBFMT           EQU          4                         ; 4-FORMAT DISK
                IBBOOT          EQU          8                         ; 8-WRITE BOOT
37f5 00         IBSTAT          DFB          0                         ; STATUS
                IBRERR          EQU          $80                       ; READ ERR
                IBDERR          EQU          $40                       ; DRIVE ERR
                IBVMME          EQU          $20                       ; VOLUME MISMATCH
                IBWPER          EQU          $10                       ; WRITE PROTECT ERROR
37f6 00         IBSMOD          DFB          0                         ; STATUS MODIFIER BYTE
37f7 60         IBPSLT          DFB          6*16                      ; PREVIOUS SLOT
37f8 01         IBPDRV          DFB          1                         ; PREVIOUS DRIVE
37f9 00 00      IBSPAR          DS           2,0                       ; IOB SPARES
37fb 00 01 ef   DCT             DFB          0,1,$EF,$D8
37fe d8
37ff 00                         DS           1,0                       ;FILL IN 3700 PAGE
                ;;;                PAGE
                ;
                ;FILE DIRECTORY DEFINITION
                ;
                ;;;                DSECT
                DSECT	EQU	*	;;;
                	ORG	0	;;;
                FILDIR          EQU          *
                FDUCDE          DS           1                         ; FILE USE CODE
                FDLTRK          DS           1                         ; LINK TO NEXT DIR TRACK
                FDLSEC          DS           1                         ; LINT TO NEXT DIR SECTOR
                FDNSA           DS           1                         ; NO SECTORS ALLOCATED
                FDLSDL          DS           1                         ; LAST SECTOR DATA LENGTH
                FDFRS           DS           2                         ; 1ST RELATIVE SECTOR IN THIS DIR
                FDSPAR          DS           5                         ; SPARES
                ;
                FDENT           DS           1                         ; START OF FILE ENTRIES (122)
                FDTRK           EQU          0                         ; TRACK
                FDSEC           EQU          1                         ; SECTOR
                ;
                FDLAST          EQU          FILDIR+256
                ;;;                DEND
                	ORG	DSECT	;;;
                ; ####################################################################################################
                ; #   END OF FILE:  BOOTLDR
                ; #   LINES      :  436
                ; #   CHARACTERS :  19320
                ; #   Formatter  :  Assembly Language Reformatter 1.0.2 (07 January 1998)
                ; ####################################################################################################
                ; ####################################################################################################
                ; #   PROJECT  :  APPLE ][ DOS 3.3 C SOURCE CODE LISTING -- (C) APPLE COMPUTER INC. JULY 1983
                ; #   FILE NAME:  COREQUS
                ; ####################################################################################################
                
                ;;;                SBTL         '16-SECTOR CORE ROUTINES'
                ***************************
                *                         *
                *         DISC-II         *
                *     16-SECTOR FORMAT    *
                *      READ AND WRITE     *
                *       SUBROUTINES       *
                *                         *
                ***************************
                *                         *
                *                         *
                *     COPYRIGHT 1979      *
                *   APPLE COMPUTER INC.   *
                *                         *
                *   ALL RIGHTS RESERVED   *
                *                         *
                ***************************
                *                         *
                *      MAR 18, 1979       *
                *          WOZ            *
                *                         *
                ***************************
                ASC1            EQU          *                         ;TELL RELOCATOR WHERE CORE STARTS
                ;;;                PAGE
                ***************************
                *                         *
                *     CRITICAL TIMING     *
                *   REQUIRES PAGE BOUND   *
                *   CONSIDERATIONS FOR    *
                *      CODE AND DATA      *
                *                         *
                *     -----CODE-----      *
                *                         *
                *   VIRTUALLY THE ENTIRE  *
                *    'WRITE16' ROUTINE    *
                *      MUST NOT CROSS     *
                *     PAGE BOUNDARIES.    *
                *                         *
                *  THE WRITE16, READ16    *
                *  AND RDADR16 SUBRS      *
                *  WHICH MUST NOT CROSS   *
                *  PAGE BOUNDARIES ARE    *
                *  NOTED IN COMMENTS.     *
                *                         *
                *     -----DATA-----      *
                *                         *
                *  NBUF1 AND NBUF2 ARE    *
                *  256-BYTE AND 86-BYTE   *
                *  NIBL BUFFERS IN RAM.   *
                *  BOTH MUST BEGIN ON     *
                *  PAGE BOUNDARIES.       *
                *                         *
                *  NIBLIZING TABLE 'NIBL' *
                *  (64 BYTES) MAPS 6-BIT  *
                *  NIBLS INTO VALID 7-BIT *
                *  NIBLS.  THIS TABLE     *
                *  MUST NOT CROSS A PAGE  *
                *  BOUNDARY.              *
                *                         *
                *  DENIBLIZING TABLE      *
                *  'DNIBL' MAPS 7-BIT     *
                *  NIBLS INTO 6-BIT       *
                *  NIBLS.  IT MUST BEGIN  *
                *  ON A PAGE BOUNDARY,    *
                *  BUT ONLY DNIBL,$96 TO  *
                *  DNIBL,$FF ARE USED.    *
                *                         *
                ***************************
                ;;;                PAGE
                ***************************
                *                         *
                *         EQUATES         *
                *                         *
                ***************************
                *                         *
                *    ----PRENIBL16----    *
                *      AND POSTNB16       *
                *   (16-SECTOR FORMAT)    *
                *                         *
                ***************************
                BUF             EQU          $3E                       ;TWO BYTE POINTER.
                *
                * POINTS TO 256-BYTE
                * USER BUFFER ANYWHERE
                * IN MEMORY.  PRENIBL16
                * CONVERTS USER DATA
                * (IN BUF) INTO 6-BIT
                * NIBLS 00ABCDEF IN
                * NBUF1 AND NBUF2 PRIOR
                * TO 'WRITE'.  POSTNBL16
                * CONVERTS 6-BIT NIBLS
                * 00ABCDEF BACK TO USER
                * DATA IN BUF AFTER 'READ'.
                *
                T0              EQU          $26                       ;TEMP FOR POSTNBL16.
                ************************
                *                      *
                *    ----RDADR16----   *
                *                      *
                ************************
                COUNT           EQU          $26                       ;'MUST FIND' COUNT.
                LAST            EQU          $26                       ;'ODD BIT' NIBLS.
                CSUM            EQU          $27                       ;CHECKSUM BYTE.
                CSSTV           EQU          $2C                       ;FOUR BYTES,
                *       CHECKSUM, SECTOR, TRACK, AND VOLUME.
                *
                ************************
                *                      *
                *    ---WRITE16---     *
                *                      *
                *  USES NBUF1, NBUF2,  *
                *  AND 64-BYTE TABLE   *
                *       'NIBL'.        *
                *                      *
                ************************
                WTEMP           EQU          $26                       ;TEMP FOR DATA AT NBUF2,0.
                SLOTZ           EQU          $27                       ;SLOTNUM IN Z-PAG LOC.
                SLOTABS         EQU          $678                      ;SLOTNUM IN NON-ZPAG LOC.
                *
                ************************
                *                      *
                *     ----READ16---    *
                *  (16-SECTOR FORMAT)  *
                *                      *
                *   USES NBUF1,NBUF2.  *
                *  USES LAST 106 BYTES *
                *  OF A DATA PAGE FOR  *
                *  SIGNIFICANT BYTES   *
                *  OF DNIBL16 TABLE.   *
                *                      *
                ************************
                IDX             EQU          $26                       ;INDEX INTO (BUF).
                *
                ************************
                *                      *
                *    ---- SEEK ----    *
                *                      *
                ************************
                TRKCNT          EQU          $26                       ;HALFTRKS MOVED COUNT.
                PRIOR           EQU          $27                       ;PRIOR HALFTRACK.
                TRKN            EQU          $2A                       ;DESIRED TRACK.
                SLOTTEMP        EQU          $2B                       ;SLOT NUM TIMES $10.
                CURTRK          EQU          $478                      ;CURRENT TRACK ON ENTRY.
                *
                ************************
                *                      *
                *   ---- MSWAIT ----   *
                *                      *
                ************************
                MONTIMEL        EQU          $46                       ;MOTOR-ON TIME
                MONTIMEH        EQU          $47                       ;COUNTERS.
                *
                ************************
                *                      *
                *   ---- WRADR16 ----  *
                *                      *
                ************************
                AA              EQU          $3E                       ;TIMING CONSTANT
                NSECT           EQU          $3F                       ;SECTOR NUMBER
                NVOL            EQU          $41                       ;VOLUME NUMBER
                TRK             EQU          $44                       ;TRACK NUMBER
                *
                ************************
                *                      *
                *    DEVICE ADDRESS    *
                *     ASSIGNMENTS      *
                *                      *
                ************************
                PHASEOFF        EQU          $C080                     ;STEPPER PHASE OFF.
                PHASEON         EQU          $C081                     ;STEPPER PHASE ON.
                Q6L             EQU          $C08C                     ;Q7L,Q6L=READ
                Q6H             EQU          $C08D                     ;Q7L,Q6H=SENSE WPROT
                Q7L             EQU          $C08E                     ;Q7H,Q6L=WRITE
                Q7H             EQU          $C08F                     ;Q7H,Q6H=WRITE STORE
                
                ; ####################################################################################################
                ; #   END OF FILE:  COREQUS
                ; #   LINES      :  174
                ; #   CHARACTERS :  5595
                ; #   Formatter  :  Assembly Language Reformatter 1.0.2 (07 January 1998)
                ; ####################################################################################################
                ; ####################################################################################################
                ; #   PROJECT  :  APPLE ][ DOS 3.3 C SOURCE CODE LISTING -- (C) APPLE COMPUTER INC. JULY 1983
                ; #   FILE NAME:  PRENIBL
                ; ####################################################################################################
                
                ;;;                SBTL         '16-SECTOR PRENIBLIZE'
                ****************************
                *                          *
                *    PRENIBLIZE SUBR       *
                *   (16-SECTOR FORMAT)     *
                *                          *
                ****************************
                *                          *
                *  CONVERTS 256 BYTES OF   *
                *  USER DATA IN (BUF),0    *
                *  TO (BUF),255 INTO 342   *
                *  6-BIT NIBLS (00ABCDEF)  *
                *  IN NBUF1 AND NBUF2.     *
                *                          *
                *    ---- ON ENTRY ----    *
                *                          *
                *  BUF IS 2-BYTE POINTER   *
                *    TO 256 BYTES OF USER  *
                *    DATA.                 *
                *                          *
                *    ---- ON EXIT -----    *
                *                          *
                *  A-REG UNCERTAIN.        *
                *  X-REG HOLDS $FF.        *
                *  Y-REG HOLDS $FF.        *
                *  CARRY SET.              *
                *                          *
                *  NBUF1 AND NBUF2 CONTAIN *
                *    6-BIT NIBLS OF FORM   *
                *    00ABCDEF.             *
                *                          *
                ****************************
3800 a2 00      PRENIB16        LDX          #$0                       ;START NBUF2 INDEX. CHANGED BY WOZ
3802 a0 02                      LDY          #2                        ;START USER BUF INDEX. CHANGED BY WOZ.
3804 88         PRENIB1         DEY                                    ;NEXT USER BYTE.
3805 b1 3e                      LDA          (BUF),Y
3807 4a                         LSR          A                         ;SHIFT TWO BITS OF
3808 3e 00 3c                   ROL          NBUF2,X                   ;CURRENT USER BYTE
380b 4a                         LSR          A                         ;INTO CURRENT NBUF2
380c 3e 00 3c                   ROL          NBUF2,X                   ;BYTE.
380f 99 00 3b                   STA          NBUF1,Y                   ;(6 BITS LEFT).
3812 e8                         INX                                    ;FROM 0 TO $55.
3813 e0 56                      CPX          #$56
3815 90 ed                      BCC          PRENIB1                   ;BR IF NO WRAPAROUND.
3817 a2 00                      LDX          #0                        ;RESET NBUF2 INDEX.
3819 98                         TYA                                    ;USER BUF INDEX.
381a d0 e8                      BNE          PRENIB1                   ;(DONE IF ZERO)
381c a2 55                      LDX          #$55                      ;NBUF2 IDX $55 TO 0.
381e bd 00 3c   PRENIB2         LDA          NBUF2,X
3821 29 3f                      AND          #$3F                      ;STRIP EACH BYTE
3823 9d 00 3c                   STA          NBUF2,X                   ;OF NBUF2 TO 6 BITS.
3826 ca                         DEX
3827 10 f5                      BPL          PRENIB2                   ;LOOP UNTIL X NEG.
3829 60                         RTS                                    ;RETURN.
                
                ; ####################################################################################################
                ; #   END OF FILE:  PRENIBL
                ; #   LINES      :  54
                ; #   CHARACTERS :  2360
                ; #   Formatter  :  Assembly Language Reformatter 1.0.2 (07 January 1998)
                ; ####################################################################################################
                ; ####################################################################################################
                ; #   PROJECT  :  APPLE ][ DOS 3.3 C SOURCE CODE LISTING -- (C) APPLE COMPUTER INC. JULY 1983
                ; #   FILE NAME:  WRITRTN
                ; ####################################################################################################
                
                ;;;                SBTL         '16-SECTOR WRITE'
                ************************
                *                      *
                *      WRITE SUBR      *
                *  (16-SECTOR FORMAT)  *
                *                      *
                ************************
                *                      *
                *   WRITES DATA FROM   *
                *    NBUF1 AND NBUF2   *
                *   CONVERTING 6-BIT   *
                *    TO 7-BIT NIBLS    *
                *   VIA 'NIBL' TABLE.  *
                *                      *
                *  FIRST NBUF2,        *
                *      HIGH TO LOW.    *
                *  THEN NBUF1,         *
                *      LOW TO HIGH.    *
                *                      *
                *  ---- ON ENTRY ----  *
                *                      *
                *   X-REG: SLOTNUM     *
                *        TIMES $10.    *
                *                      *
                *   NBUF1 AND NBUF2    *
                *    HOLD NIBLS FROM   *
                *    PRENIBL SUBR.     *
                *    (00ABCDEF)        *
                *                      *
                *  ---- ON EXIT -----  *
                *                      *
                *  CARRY SET IF ERROR. *
                *   (W PROT VIOLATION) *
                *                      *
                *  IF NO ERROR:        *
                *                      *
                *    A-REG UNCERTAIN.  *
                *    X-REG UNCHANGED.  *
                *    Y-REG HOLDS $00.  *
                *    CARRY CLEAR.      *
                *                      *
                *    SLOTABS, SLOTZ,   *
                *     AND WTEMP USED.  *
                *                      *
                *  ---- ASSUMES ----   *
                *                      *
                *  1 USEC CYCLE TIME   *
                *                      *
                ************************
382a 38         WRITE16         SEC                                    ;ANTICIPATE WPROT ERR.
382b 86 27                      STX          SLOTZ                     ;FOR ZERO PAGE ACCESS.
382d 8e 78 06                   STX          SLOTABS                   ;FOR NON-ZERO PAGE.
3830 bd 8d c0                   LDA          Q6H,X
3833 bd 8e c0                   LDA          Q7L,X                     ;SENSE WPROT FLAG.
3836 30 7c                      BMI          WEXIT                     ;IF HIGH, THEN ERR.
3838 ad 00 3c                   LDA          NBUF2
383b 85 26                      STA          WTEMP                     ;FOR ZERO-PAGE ACCESS.
383d a9 ff                      LDA          #$FF                      ;SYNC DATA.
383f 9d 8f c0                   STA          Q7H,X                     ;(5)  WRITE 1ST NIBL.
3842 1d 8c c0                   ORA          Q6L,X                     ;(4)
3845 48                         PHA                                    ;(3)
3846 68                         PLA                                    ;(4)  CRITICAL TIMING!
3847 ea                         NOP                                    ;(2)
3848 a0 04                      LDY          #4                        ;(2)  FOR 5 NIBLS.
384a 48         WSYNC           PHA                                    ;(3)  EXACT TIMING.
384b 68                         PLA                                    ;(4)  EXACT TIMING.
384c 20 b9 38                   JSR          WNIBL7                    ;(13,9,6)  WRITE SYNC.
384f 88                         DEY                                    ;(2)
3850 d0 f8                      BNE          WSYNC                     ;(2*)  MUST NOT CROSS PAGE!
3852 a9 d5                      LDA          #$D5                      ;(2)  1ST DATA MARK.
3854 20 b8 38                   JSR          WNIBL9                    ;(15,9,6)
3857 a9 aa                      LDA          #$AA                      ;(2)  2ND DATA MARK.
3859 20 b8 38                   JSR          WNIBL9                    ;(15,9,6)
385c a9 ad                      LDA          #$AD                      ;(2)  3RD DATA MARK.
385e 20 b8 38                   JSR          WNIBL9                    ;(15,9,6)
3861 98                         TYA                                    ;(2)  CLEAR CHKSUM.
3862 a0 56                      LDY          #$56                      ;(2)  NBUF2 INDEX.
3864 d0 03                      BNE          WDATA1                    ;(3)  ALWAYS.  NO PAGE CROSS!!
3866 b9 00 3c   WDATA0          LDA          NBUF2,Y                   ;(4)  PRIOR 6-BIT NIBL.
3869 59 ff 3b   WDATA1          EOR          NBUF2-1,Y                 ;(5)  XOR WITH CURRENT.
                *   (NBUF2 MUST BE ON PAGE BOUNDARY FOR TIMING!!)
386c aa                         TAX                                    ;(2)  INDEX TO 7-BIT NIBL.
386d bd 29 3a                   LDA          NIBL,X                    ;(4)  MUST NOT CROSS PAGE!
3870 a6 27                      LDX          SLOTZ                     ;(3)  CRITICAL TIMING!
3872 9d 8d c0                   STA          Q6H,X                     ;(5)  WRITE NIBL.
3875 bd 8c c0                   LDA          Q6L,X                     ;(4)
3878 88                         DEY                                    ;(2)  NEXT NIBL.
3879 d0 eb                      BNE          WDATA0                    ;(2*)  MUST NOT CROSS PAGE!
387b a5 26                      LDA          WTEMP                     ;(3)  PRIOR NIBL FROM BUF6.
387d ea                         NOP                                    ;(2)  CRITICAL TIMING.
387e 59 00 3b   WDATA2          EOR          NBUF1,Y                   ;(4)  XOR NBUF1 NIBL.
3881 aa                         TAX                                    ;(2)  INDEX TO 7-BIT NIBL.
3882 bd 29 3a                   LDA          NIBL,X                    ;(4)
3885 ae 78 06                   LDX          SLOTABS                   ;(4)  TIMING CRITICAL.
3888 9d 8d c0                   STA          Q6H,X                     ;(5)  WRITE NIBL.
388b bd 8c c0                   LDA          Q6L,X                     ;(4)
388e b9 00 3b                   LDA          NBUF1,Y                   ;(4)  PRIOR 6-BIT NIBL.
3891 c8                         INY                                    ;(2)  NEXT NBUF1 NIBL.
3892 d0 ea                      BNE          WDATA2                    ;(2*)  MUST NOT CROSS PAGE!
3894 aa                         TAX                                    ;(2)  LAST NIBL AS CHKSUM.
3895 bd 29 3a                   LDA          NIBL,X                    ;(4)  INDEX TO 7-BIT NIBL.
3898 a6 27                      LDX          SLOTZ                     ;(3)
389a 20 bb 38                   JSR          WNIBL                     ;(6,9,6)  WRITE CHKSUM.
389d a9 de                      LDA          #$DE                      ;(2)  DM4, BIT SLIP MARK.
389f 20 b8 38                   JSR          WNIBL9                    ;(15,9,6)    WRITE IT.
38a2 a9 aa                      LDA          #$AA                      ;(2)  DM5, BIT SLIP MARK.
38a4 20 b8 38                   JSR          WNIBL9                    ;(15,9,6)    WRITE IT.
38a7 a9 eb                      LDA          #$EB                      ;(2)  DM6, BIT SLIP MARK.
38a9 20 b8 38                   JSR          WNIBL9                    ;(15,9,6)    WRITE IT.
38ac a9 ff                      LDA          #$FF                      ;(2) TURN-OFF BYTE.
38ae 20 b8 38                   JSR          WNIBL9                    ;(15,9,9)  WRITE IT.
38b1 bd 8e c0                   LDA          Q7L,X                     ;OUT OF WRITE MODE.
38b4 bd 8c c0   WEXIT           LDA          Q6L,X                     ;TO READ MODE.
38b7 60                         RTS                                    ;RETURN FROM WRITE.
                *****************************
                *                           *
                *   7-BIT NIBL WRITE SUBRS  *
                *                           *
                *   A-REG OR'D PRIOR EXIT   *
                *       CARRY CLEARED       *
                *                           *
                *****************************
38b8 18         WNIBL9          CLC                                    ;(2)  9 CYCLES, THEN WRITE.
38b9 48         WNIBL7          PHA                                    ;(3)  7 CYCLES, THEN WRITE.
38ba 68                         PLA                                    ;(4)
38bb 9d 8d c0   WNIBL           STA          Q6H,X                     ;(5)  NIBL WRITE SUB.
38be 1d 8c c0                   ORA          Q6L,X                     ;(4)  CLOBBERS ACC, NOT CARRY.
38c1 60                         RTS
                
                ; ####################################################################################################
                ; #   END OF FILE:  WRITRTN
                ; #   LINES      :  128
                ; #   CHARACTERS :  6272
                ; #   Formatter  :  Assembly Language Reformatter 1.0.2 (07 January 1998)
                ; ####################################################################################################
                ; ####################################################################################################
                ; #   PROJECT  :  APPLE ][ DOS 3.3 C SOURCE CODE LISTING -- (C) APPLE COMPUTER INC. JULY 1983
                ; #   FILE NAME:  POSTNRD
                ; ####################################################################################################
                
                ;;;                SBTL         '16-SECTOR POSTNIBLIZE'
                ***************************
                *                         *
                *    POSTNIBLIZE SUBR     *
                *    16-SECTOR FORMAT     *
                *                         *
                ***************************
                *                         *
                *  CONVERTS 6-BIT NIBLS   *
                *  OF FORM 00ABCDEF IN    *
                *  NBUF1 AND NBUF2 INTO   *
                *  256 BYTES OF USER      *
                *  DATA IN BUF.           *
                *                         *
                *   ---- ON ENTRY ----    *
                *                         *
                *  X-REG: HOLDS SLOTNUM   *
                *            TIMES $10.   *
                *                         *
                *  BUF IS 2-BYTE POINTER  *
                *    TO 256 BYTES OF USER *
                *    DATA TO BE CONVERTED *
                *    TO 6-BIT NIBLS IN    *
                *    NBUF1 AND NBUF2      *
                *    PRIOR TO WRITE.      *
                *                         *
                *  T0 CONTAINS BYTE COUNT *
                *    CODE 0 = 256 BYTES   *
                *    CODE 1 =   1 BYTE    *
                *    CODE 2 =   2 BYTER   *
                *                         *
                *    CODE 255=255 BYTES   *
                *                         *
                *   ---- ON EXIT -----    *
                *                         *
                *  A-REG UNCERTAIN.       *
                *  Y-REG SAME AS T0.      *
                *  X-REG UNCERTAIN.       *
                *  CARRY SET.             *
                *                         *
                *  6-BIT NIBLS OF FORM    *
                *    00ABCDEF IN NBUF1    *
                *    AND NBUF2.           *
                *      (342 NIBLS)        *
                ***************************
38c2 a0 00      POSTNB16        LDY          #0                        ;USER DATA BUF IDX.
38c4 a2 56      POST1           LDX          #$56                      ;INIT NBUF2 INDEX.
38c6 ca         POST2           DEX                                    ;NBUF IDX $55 TO $0.
38c7 30 fb                      BMI          POST1                     ;WRAPAROUND IF NEG.
38c9 b9 00 3b                   LDA          NBUF1,Y
38cc 5e 00 3c                   LSR          NBUF2,X                   ;SHIFT 2 BITS FROM
38cf 2a                         ROL          A                         ;CURRENT NBUF2 NIBL
38d0 5e 00 3c                   LSR          NBUF2,X                   ;INTO CURRENT NBUF1
38d3 2a                         ROL          A                         ;NIBL.
38d4 91 3e                      STA          (BUF),Y                   ;BYTE OF USER DATA.
38d6 c8                         INY                                    ;NEXT USER BYTE.
38d7 c4 26                      CPY          T0                        ;DONE IF EQUAL T0.
38d9 d0 eb                      BNE          POST2
38db 60                         RTS                                    ;RETURN.
                ;;;                SBTL         '16-SECTOR READ'
                **************************
                *                        *
                *     READ SUBROUTINE    *
                *   (16-SECTOR FORMAT)   *
                *                        *
                **************************
                *                        *
                *    READS 6-BIT NIBLS   *
                *     (00ABCDEF) INTO    *
                *     NBUF1 AND NBUF2    *
                *    CONVERTING 7-BIT    *
                *     NIBLS TO 6-BIT     *
                *    VIA 'DNIBL' TABLE   *
                *                        *
                *  FIRST READS NBUF2     *
                *          HIGH TO LOW,  *
                *  THEN READS NBUF1      *
                *          LOW TO HIGH.  *
                *                        *
                *   ---- ON ENTRY ----   *
                *                        *
                *  X-REG: SLOTNUM        *
                *         TIMES $10.     *
                *                        *
                *  READ MODE (Q6L, Q7L)  *
                *                        *
                *   ---- ON EXIT -----   *
                *                        *
                *  CARRY SET IF ERROR.   *
                *                        *
                *  IF NO ERROR:          *
                *     A-REG HOLDS $AA.   *
                *     X-REG UNCHANGED.   *
                *     Y-REG HOLDS $00.   *
                *     CARRY CLEAR.       *
                *                        *
                *     NBUF1 AND NBUF2    *
                *       HOLD 6-BIT NIBLS *
                *       (00ABCDEF)       *
                *                        *
                *     USES TEMP 'IDX'.   *
                *                        *
                *   ---- CAUTION -----   *
                *                        *
                *        OBSERVE         *
                *    'NO PAGE CROSS'     *
                *      WARNINGS ON       *
                *    SOME BRANCHES!!     *
                *                        *
                *   ---- ASSUMES ----    *
                *                        *
                *   1 USEC CYCLE TIME    *
                *                        *
                **************************
38dc a0 20      READ16          LDY          #$20                      ;'MUST FIND' COUNT.
38de 88         RSYNC           DEY                                    ;IF CAN'T FIND MARKS
38df f0 61                      BEQ          RDERR                     ;THEN EXIT WITH CARRY SET.
38e1 bd 8c c0   READ1           LDA          Q6L,X                     ;READ NIBL.
38e4 10 fb                      BPL          READ1                     ;*** NO PAGE CROSS! ***
38e6 49 d5      RSYNC1          EOR          #$D5                      ;DATA MARK 1?
38e8 d0 f4                      BNE          RSYNC                     ;LOOP IF NOT.
38ea ea                         NOP                                    ;DELAY BETWEEN NIBLS.
38eb bd 8c c0   READ2           LDA          Q6L,X
38ee 10 fb                      BPL          READ2                     ;*** NO PAGE CROSS! ***
38f0 c9 aa                      CMP          #$AA                      ;DATA MARK 2?
38f2 d0 f2                      BNE          RSYNC1                    ;(IF NOT, IS IT DM1?)
38f4 a0 56                      LDY          #$56                      ;INIT NBUF2 INDEX.
                *              (ADDED NIBL DELAY)
38f6 bd 8c c0   READ3           LDA          Q6L,X
38f9 10 fb                      BPL          READ3                     ;*** NO PAGE CROSS! ***
38fb c9 ad                      CMP          #$AD                      ;DATA MARK 3?
38fd d0 e7                      BNE          RSYNC1                    ;(IF NOT, IS IT DM1?)
                *         (CARRY SET IF DM3!)
38ff a9 00                      LDA          #$00                      ;INIT CHECKSUM.
3901 88         RDATA1          DEY
3902 84 26                      STY          IDX
3904 bc 8c c0   READ4           LDY          Q6L,X
3907 10 fb                      BPL          READ4                     ;*** NO PAGE CROSS! ***
3909 59 00 3a                   EOR          DNIBL,Y                   ;XOR 6-BIT NIBL.
390c a4 26                      LDY          IDX
390e 99 00 3c                   STA          NBUF2,Y                   ;STORE IN NBUF2 PAGE.
3911 d0 ee                      BNE          RDATA1                    ;TAKEN IF Y-REG NONZERO.
3913 84 26      RDATA2          STY          IDX
3915 bc 8c c0   READ5           LDY          Q6L,X
3918 10 fb                      BPL          READ5                     ;*** NO PAGE CROSS! ***
391a 59 00 3a                   EOR          DNIBL,Y                   ;XOR 6-BIT NIBL.
391d a4 26                      LDY          IDX
391f 99 00 3b                   STA          NBUF1,Y                   ;STORE IN NBUF1 PAGE.
3922 c8                         INY
3923 d0 ee                      BNE          RDATA2
3925 bc 8c c0   READ6           LDY          Q6L,X                     ;READ 7-BIT CSUM NIBL.
3928 10 fb                      BPL          READ6                     ;*** NO PAGE CROSS! ***
392a d9 00 3a                   CMP          DNIBL,Y                   ;IF LAST NBUF1 NIBL NOT
392d d0 13                      BNE          RDERR                     ;EQUAL CHKSUM NIBL THEN ERR.
392f bd 8c c0   READ7           LDA          Q6L,X
3932 10 fb                      BPL          READ7                     ;*** NO PAGE CROSS! ***
3934 c9 de                      CMP          #$DE                      ;FIRST BIT SLIP MARK?
3936 d0 0a                      BNE          RDERR                     ;(ERR IF NOT)
3938 ea                         NOP                                    ;DELAY BETWEEN NIBLS.
3939 bd 8c c0   READ8           LDA          Q6L,X
393c 10 fb                      BPL          READ8                     ;*** NO PAGE CROSS! ***
393e c9 aa                      CMP          #$AA                      ;SECOND BIT SLIP MARK?
3940 f0 5c                      BEQ          RDEXIT                    ;(DONE IF IT IS)
3942 38         RDERR           SEC                                    ;INDICATE 'ERROR EXIT'.
3943 60                         RTS                                    ;RETURN FROM READ16 OR RDADR16.
                
                ; ####################################################################################################
                ; #   END OF FILE:  POSTNRD
                ; #   LINES      :  165
                ; #   CHARACTERS :  6677
                ; #   Formatter  :  Assembly Language Reformatter 1.0.2 (07 January 1998)
                ; ####################################################################################################
                ; ####################################################################################################
                ; #   PROJECT  :  APPLE ][ DOS 3.3 C SOURCE CODE LISTING -- (C) APPLE COMPUTER INC. JULY 1983
                ; #   FILE NAME:  RDADSEK
                ; ####################################################################################################
                
                ;;;                SBTL         '16-SECTOR READ ADDRESS'
                ****************************
                *                          *
                *    READ ADDRESS FIELD    *
                *        SUBROUTINE        *
                *    (16-SECTOR FORMAT)    *
                *                          *
                ****************************
                *                          *
                *    READS VOLUME, TRACK   *
                *        AND SECTOR        *
                *                          *
                *   ---- ON ENTRY ----     *
                *                          *
                *  XREG: SLOTNUM TIMES $10 *
                *                          *
                *  READ MODE (Q6L, Q7L)    *
                *                          *
                *   ---- ON EXIT -----     *
                *                          *
                *  CARRY SET IF ERROR.     *
                *                          *
                *  IF NO ERROR:            *
                *    A-REG HOLDS $AA.      *
                *    Y-REG HOLDS $00.      *
                *    X-REG UNCHANGED.      *
                *    CARRY CLEAR.          *
                *                          *
                *    CSSTV HOLDS CHKSUM,   *
                *      SECTOR, TRACK, AND  *
                *      VOLUME READ.        *
                *                          *
                *    USES TEMPS COUNT,     *
                *      LAST, CSUM, AND     *
                *      4 BYTES AT CSSTV.   *
                *                          *
                *    ---- EXPECTS ----     *
                *                          *
                *   ORIGINAL 10-SECTOR     *
                *  NORMAL DENSITY NIBLS    *
                *   (4-BIT), ODD BITS,     *
                *   THEN EVEN.             *
                *                          *
                *    ---- CAUTION ----     *
                *                          *
                *         OBSERVE          *
                *    'NO PAGE CROSS'       *
                *      WARNINGS ON         *
                *    SOME BRANCHES!!       *
                *                          *
                *    ---- ASSUMES ----     *
                *                          *
                *    1 USEC CYCLE TIME     *
                *                          *
                ****************************
3944 a0 fc      RDADR16         LDY          #$FC
3946 84 26                      STY          COUNT                     ;'MUST FIND' COUNT.
3948 c8         RDASYN          INY
3949 d0 04                      BNE          RDA1                      ;LOW ORDER OF COUNT.
394b e6 26                      INC          COUNT                     ;(2K NIBLS TO FIND
394d f0 f3                      BEQ          RDERR                     ;ADR MARK, ELSE ERR)
394f bd 8c c0   RDA1            LDA          Q6L,X                     ;READ NIBL.
3952 10 fb                      BPL          RDA1                      ;*** NO PAGE CROSS! ***
3954 c9 d5      RDASN1          CMP          #$D5                      ;ADR MARK 1?
3956 d0 f0                      BNE          RDASYN                    ;(LOOP IF NOT)
3958 ea                         NOP                                    ;ADDED NIBL DELAY.
3959 bd 8c c0   RDA2            LDA          Q6L,X
395c 10 fb                      BPL          RDA2                      ;*** NO PAGE CROSS! ***
395e c9 aa                      CMP          #$AA                      ;ADR MARK 2?
3960 d0 f2                      BNE          RDASN1                    ;(IF NOT, IS IT AM1?)
3962 a0 03                      LDY          #$3                       ;INDEX FOR 4-BYTE READ.
                *            (ADDED NIBL DELAY)
3964 bd 8c c0   RDA3            LDA          Q6L,X
3967 10 fb                      BPL          RDA3                      ;*** NO PAGE CROSS! ***
3969 c9 96                      CMP          #$96                      ;ADR MARK 3?
396b d0 e7                      BNE          RDASN1                    ;(IF NOT, IS IT AM1?)
                *        (LEAVES CARRY SET!)
396d a9 00                      LDA          #$0                       ;INIT CHECKSUM.
396f 85 27      RDAFLD          STA          CSUM
3971 bd 8c c0   RDA4            LDA          Q6L,X                     ;READ 'ODD BIT' NIBL.
3974 10 fb                      BPL          RDA4                      ;*** NO PAGE CROSS! ***
3976 2a                         ROL          A                         ;ALIGN ODD BITS, '1' INTO LSB.
3977 85 26                      STA          LAST                      ;(SAVE THEM)
3979 bd 8c c0   RDA5            LDA          Q6L,X                     ;READ 'EVEN BIT' NIBL.
397c 10 fb                      BPL          RDA5                      ;*** NO PAGE CROSS! ***
397e 25 26                      AND          LAST                      ;MERGE ODD AND EVEN BITS.
3980 99 2c 00                   STA          CSSTV,Y                   ;STORE DATA BYTE.
3983 45 27                      EOR          CSUM                      ;XOR CHECKSUM.
3985 88                         DEY
3986 10 e7                      BPL          RDAFLD                    ;LOOP ON 4 DATA BYTES.
3988 a8                         TAY                                    ;IF FINAL CHECKSUM
3989 d0 b7                      BNE          RDERR                     ;NONZERO, THEN ERROR.
398b bd 8c c0   RDA6            LDA          Q6L,X                     ;FIRST BIT-SLIP NIBL.
398e 10 fb                      BPL          RDA6                      ;*** NO PAGE CROSS! ***
3990 c9 de                      CMP          #$DE
3992 d0 ae                      BNE          RDERR                     ;ERROR IF NONMATCH.
3994 ea                         NOP                                    ;DELAY BETWEEN NIBLS.
3995 bd 8c c0   RDA7            LDA          Q6L,X                     ;SECOND BIT-SLIP NIBL.
3998 10 fb                      BPL          RDA7                      ;*** NO PAGE CROSS! ***
399a c9 aa                      CMP          #$AA
399c d0 a4                      BNE          RDERR                     ;ERROR IF NONMATCH.
399e 18         RDEXIT          CLC                                    ;CLEAR CARRY ON
399f 60                         RTS                                    ;NORMAL READ EXITS.
                ;;;                SBTL         '16-SECTOR SEEK'
                **************************
                *                        *
                *  FAST SEEK SUBROUTINE  *
                *                        *
                **************************
                *                        *
                *   ---- ON ENTRY ----   *
                *                        *
                *  X-REG HOLDS SLOTNUM   *
                *         TIMES $10.     *
                *                        *
                *  A-REG HOLDS DESIRED   *
                *         HALFTRACK.     *
                *         (SINGLE PHASE) *
                *                        *
                *  CURTRK HOLDS CURRENT  *
                *          HALFTRACK.    *
                *                        *
                *   ---- ON EXIT -----   *
                *                        *
                *  A-REG UNCERTAIN.      *
                *  Y-REG UNCERTAIN.      *
                *  X-REG UNDISTURBED.    *
                *                        *
                *  CURTRK AND TRKN HOLD  *
                *      FINAL HALFTRACK.  *
                *                        *
                *  PRIOR HOLDS PRIOR     *
                *    HALFTRACK IF SEEK   *
                *    WAS REQUIRED.       *
                *                        *
                *  MONTIMEL AND MONTIMEH *
                *    ARE INCREMENTED BY  *
                *    THE NUMBER OF       *
                *    100 USEC QUANTUMS   *
                *    REQUIRED BY SEEK    *
                *    FOR MOTOR ON TIME   *
                *    OVERLAP.            *
                *                        *
                * --- VARIABLES USED --- *
                *                        *
                *  CURTRK, TRKN, COUNT,  *
                *    PRIOR, SLOTTEMP     *
                *    MONTIMEL, MONTIMEH  *
                *                        *
                **************************
39a0 86 2b      SEEK            STX          SLOTTEMP                  ;SAVE X-REG
39a2 85 2a                      STA          TRKN                      ;SAVE TARGET TRACK
39a4 cd 78 04                   CMP          CURTRK                    ;ON DESIRED TRACK?
39a7 f0 53                      BEQ          SEEKRTS                   ;YES, RETURN
39a9 a9 00                      LDA          #$0
39ab 85 26                      STA          TRKCNT                    ;HALFTRACK COUNT.
39ad ad 78 04   SEEK2           LDA          CURTRK                    ;SAVE CURTRK FOR
39b0 85 27                      STA          PRIOR                     ; DELAYED TURNOFF.
39b2 38                         SEC
39b3 e5 2a                      SBC          TRKN                      ;DELTA-TRACKS.
39b5 f0 33                      BEQ          SEEKEND                   ;BR IF CURTRK=DESTINATION
39b7 b0 07                      BCS          OUT                       ;(MOVE OUT, NOT IN)
39b9 49 ff                      EOR          #$FF                      ;CALC TRKS TO GO.
39bb ee 78 04                   INC          CURTRK                    ;INCR CURRENT TRACK (IN).
39be 90 05                      BCC          MINTST                    ;(ALWAYS TAKEN)
39c0 69 fe      OUT             ADC          #$FE                      ;CALC TRKS TO GO.
39c2 ce 78 04                   DEC          CURTRK                    ;DECR CURRENT TRACK (OUT).
39c5 c5 26      MINTST          CMP          TRKCNT
39c7 90 02                      BCC          MAXTST                    ;AND 'TRKS MOVED'.
39c9 a5 26                      LDA          TRKCNT
39cb c9 0c      MAXTST          CMP          #$C
39cd b0 01                      BCS          STEP2                     ;IF TRKCNT>$B LEAVE Y ALONE (Y=$B).
39cf a8         STEP            TAY                                    ;ELSE SET ACCELERATION INDEX IN Y
                STEP2           EQU          *
39d0 38                         SEC                                    ;CARRY SET=PHASE ON
39d1 20 ee 39                   JSR          SETPHASE                  ;PHASE ON
39d4 b9 11 3a                   LDA          ONTABLE,Y                 ;FOR 'ONTIME'.
39d7 20 00 3a                   JSR          MSWAIT                    ;(100 USEC INTERVALS)
                *
39da a5 27                      LDA          PRIOR
39dc 18                         CLC                                    ;CARRY CLEAR=PHASE OFF
39dd 20 f1 39                   JSR          CLRPHASE                  ;PHASE OFF
39e0 b9 1d 3a                   LDA          OFFTABLE,Y                ;THEN WAIT 'OFFTIME'.
39e3 20 00 3a                   JSR          MSWAIT                    ;(100 USEC INTERVALS)
39e6 e6 26                      INC          TRKCNT                    ;'TRACKS MOVED' COUNT.
39e8 d0 c3                      BNE          SEEK2                     ;(ALWAYS TAKEN)
                *
                SEEKEND         EQU          *                         ;END OF SEEKING
39ea 20 00 3a                   JSR          MSWAIT                    ;A=0: WAIT 25 MS SETTLE
39ed 18                         CLC                                    ; AND TURN OFF PHASE
                *
                * TURN HEAD STEPPER PHASE ON/OFF
                *
                SETPHASE        EQU          *
39ee ad 78 04                   LDA          CURTRK                    ;GET CURRENT PHASE
                CLRPHASE        EQU          *
39f1 29 03                      AND          #3                        ;MASK FOR 1 OF 4 PHASES
39f3 2a                         ROL          A                         ;DOUBLE FOR PHASE INDEX
39f4 05 2b                      ORA          SLOTTEMP
39f6 aa                         TAX
39f7 bd 80 c0                   LDA          PHASEOFF,X                ;FLIP THE PHASE
39fa a6 2b                      LDX          SLOTTEMP                  ;RESTORE X-REG
39fc 60         SEEKRTS         RTS                                    ;AND RETURN
                
                ; ####################################################################################################
                ; #   END OF FILE:  RDADSEK
                ; #   LINES      :  203
                ; #   CHARACTERS :  8943
                ; #   Formatter  :  Assembly Language Reformatter 1.0.2 (07 January 1998)
                ; ####################################################################################################
                ; ####################################################################################################
                ; #   PROJECT  :  APPLE ][ DOS 3.3 C SOURCE CODE LISTING -- (C) APPLE COMPUTER INC. JULY 1983
                ; #   FILE NAME:  MSWAITR
                ; ####################################################################################################
                
                ;;;                SBTL         '16-SECTOR MSWAIT'
                **************************
                *   MSWAIT SUBROUTINE    *
                **************************
                *                        *
                *  DELAYS A SPECIFIED    *
                *   NUMBER OF 100 USEC   *
                *   INTERVALS FOR MOTOR  *
                *   ON TIMING.           *
                *                        *
                *   ---- ON ENTRY ----   *
                *  A-REG: HOLDS NUMBER   *
                *        OF 100 USEC     *
                *        INTERVALS TO    *
                *        DELAY.          *
                *                        *
                *   ---- ON EXIT -----   *
                *  A-REG: HOLDS $00.     *
                *  X-REG: HOLDS $00.     *
                *  Y-REG: UNCHANGED.     *
                *  CARRY: SET.           *
                *                        *
                *  MONTIMEL, MONTIMEH    *
                *   ARE INCREMENTED ONCE *
                *   PER 100 USEC INTERVAL*
                *   FOR MOTON ON TIMING. *
                *   ---- ASSUMES ----    *
                *   1 USEC CYCLE TIME    *
                **************************
39fd 00 00 00                   DS           3,0                       ;AVOID PAGE BOUNDARY CROSSING...
3a00 a2 11      MSWAIT          LDX          #$11
3a02 ca         MSW1            DEX                                    ;DELAY 86 USEC.
3a03 d0 fd                      BNE          MSW1
3a05 e6 46                      INC          MONTIMEL
3a07 d0 02                      BNE          MSW2                      ;DOUBLE-BYTE
3a09 e6 47                      INC          MONTIMEH                  ;INCREMENT.
3a0b 38         MSW2            SEC
3a0c e9 01                      SBC          #$1                       ;DONE 'N' INTERVALS?
3a0e d0 f0                      BNE          MSWAIT                    ;(A-REG COUNTS)
3a10 60                         RTS
                AEC1            EQU          *                         ;TELL RELOCATOR WHERE CORE ENDS
                **************************
                *  PHASE ON-, OFF-TIME   *
                *   TABLES IN 100-USEC   *
                *   INTERVALS. (SEEK)    *
                **************************
3a11 01 30 28   ONTABLE         DFB          1,$30,$28
3a14 24 20 1e                   DFB          $24,$20,$1E
3a17 1d 1c 1c                   DFB          $1D,$1C,$1C
3a1a 1c 1c 1c                   DFB          $1C,$1C,$1C
3a1d 70 2c 26   OFFTABLE        DFB          $70,$2C,$26
3a20 22 1f 1e                   DFB          $22,$1F,$1E
3a23 1d 1c 1c                   DFB          $1D,$1C,$1C
3a26 1c 1c 1c                   DFB          $1C,$1C,$1C
                ;;;                SBTL         '16-SECTOR NYBBLE TABLES'
                ***************************
                *                         *
                *     6-BIT TO 7-BIT      *
                *  NIBL CONVERSION TABLE  *
                *                         *
                ***************************
                *                         *
                *   CODES WITH MORE THAN  *
                *   ONE PAIR OF ADJACENT  *
                *    ZEROES OR WITH NO    *
                *   ADJACENT ONES (EXCEPT *
                *     B7) ARE EXCLUDED.   *
                *                         *
                *  THIS TABLE MAY *NOT*   *
                *  CROSS A PAGE BOUNDARY! *
                *                         *
                ***************************
3a29 96 97 9a   NIBL            DFB          $96,$97,$9A
3a2c 9b 9d 9e                   DFB          $9B,$9D,$9E
3a2f 9f a6 a7                   DFB          $9F,$A6,$A7
3a32 ab ac ad                   DFB          $AB,$AC,$AD
3a35 ae af b2                   DFB          $AE,$AF,$B2
3a38 b3 b4 b5                   DFB          $B3,$B4,$B5
3a3b b6 b7 b9                   DFB          $B6,$B7,$B9
3a3e ba bb bc                   DFB          $BA,$BB,$BC
3a41 bd be bf                   DFB          $BD,$BE,$BF
3a44 cb cd ce                   DFB          $CB,$CD,$CE
3a47 cf d3 d6                   DFB          $CF,$D3,$D6
3a4a d7 d9 da                   DFB          $D7,$D9,$DA
3a4d db dc dd                   DFB          $DB,$DC,$DD
3a50 de df e5                   DFB          $DE,$DF,$E5
3a53 e6 e7 e9                   DFB          $E6,$E7,$E9
3a56 ea eb ec                   DFB          $EA,$EB,$EC
3a59 ed ee ef                   DFB          $ED,$EE,$EF
3a5c f2 f3 f4                   DFB          $F2,$F3,$F4
3a5f f5 f6 f7                   DFB          $F5,$F6,$F7
3a62 f9 fa fb                   DFB          $F9,$FA,$FB
3a65 fc fd fe                   DFB          $FC,$FD,$FE
3a68 ff                         DFB          $FF
                ;;;                PAGE
                ***************************
                *      7-BIT TO 6-BIT     *
                *     'DENIBLIZE' TABL    *
                *    (16-SECTOR FORMAT)   *
                *                         *
                *       VALID CODES       *
                *     $96 TO $FF ONLY.    *
                *                         *
                *                         *
                *   CODES WITH MORE THAN  *
                *   ONE PAIR OF ADJACENT  *
                *    ZEROES OR WITH NO    *
                *   ADJACENT ONES (EXCEPT *
                *    BIT 7) ARE EXCLUDED. *
                *                         *
                * THIS TABLE *MUST* BE    *
                * ALIGNED AT THE END OF   *
                * A PAGE IN MEMORY!!!     *
                ***************************
                XP              EQU          <*                        ;CURRENT PAGE ADDRESS
                DNIBL           EQU          256*XP                    ;DNIBL TABLE PAGE
                ;;;                PAGE
                ***********************************************
                *
                * GHOST APPEND BUG PATCH BY
                * BILL GRIMM
                *
                ***********************************************
                PSC1            EQU          *                         ;Tell relocater where to start
                MOVEOF          EQU          *
3a69 ae 5f 2a                   LDX          CMDNO                     ; GET CMD NUMBER
3a6c e0 1c                      CPX          #$1C                      ; APPEND COMMAND?
3a6e f0 05                      BEQ          GOON                      ; YES, RETURN TO CALLING ROUTINE
3a70 a2 00                      LDX          #$00                      ; NO, THEN CLEAR X
3a72 8e 5d 36                   STX          EOFFLAG                   ; CLEAR EOF FLAG
3a75 60         GOON            RTS
                ;;;                SKP          4
                ***********************************************
                *
                * TURN Apple //e 80 COLUMN CARD
                * OFF & INIT APPLE
                *
                ***********************************************
                OFF80           EQU          *
3a76 a9 ff                      LDA          #$FF
3a78 8d fb 04                   STA          $4FB                      ; CLEARS FUNNY 80 COL STUFF
3a7b 8d 0c c0                   STA          $C00C                     ; TURNS 80 COL OFF
3a7e 8d 0e c0                   STA          $C00E                     ; TURN OFF ALT CHAR SET
3a81 4c 2f fb                   JMP          $FB2F                     ; MONITOR INIT ROUTINE
                
                FIXIT2          EQU          *
3a84 ad bd 35                   LDA          CCBRLN                    ;Current record length lo
3a87 8d e6 35                   STA          DCBCSB                    ;Current sector byte
3a8a 8d ea 35                   STA          DCBCRR                    ;Current relative record
3a8d ba                         TSX
3a8e 8e 9b 33                   STX          ENTSTK
3a91 4c 7f 33                   JMP          GOODIO
                ;;;                PAGE
                PEC1            EQU          *                         ;Tell relocater where to stop
                PD1             EQU          >*
                PD2             EQU          $96-PD1
3a94 00 00                      DS           PD2,0                     ;Must pad to $XX96
3a96 00 01 98                   DFB          $00,$01,$98
3a99 99 02 03                   DFB          $99,$02,$03
3a9c 9c 04 05                   DFB          $9C,$04,$05
3a9f 06 a0 a1                   DFB          $06,$A0,$A1
3aa2 a2 a3 a4                   DFB          $A2,$A3,$A4
3aa5 a5 07 08                   DFB          $A5,$07,$08
3aa8 a8 a9 aa                   DFB          $A8,$A9,$AA
3aab 09 0a 0b                   DFB          $09,$0A,$0B
3aae 0c 0d b0                   DFB          $0C,$0D,$B0
3ab1 b1 0e 0f                   DFB          $B1,$0E,$0F
3ab4 10 11 12                   DFB          $10,$11,$12
3ab7 13 b8 14                   DFB          $13,$B8,$14
3aba 15 16 17                   DFB          $15,$16,$17
3abd 18 19 1a                   DFB          $18,$19,$1A
3ac0 c0 c1 c2                   DFB          $C0,$C1,$C2
3ac3 c3 c4 c5                   DFB          $C3,$C4,$C5
3ac6 c6 c7 c8                   DFB          $C6,$C7,$C8
3ac9 c9 ca 1b                   DFB          $C9,$CA,$1B
3acc cc 1c 1d                   DFB          $CC,$1C,$1D
3acf 1e d0 d1                   DFB          $1E,$D0,$D1
3ad2 d2 1f d4                   DFB          $D2,$1F,$D4
3ad5 d5 20 21                   DFB          $D5,$20,$21
3ad8 d8 22 23                   DFB          $D8,$22,$23
3adb 24 25 26                   DFB          $24,$25,$26
3ade 27 28 e0                   DFB          $27,$28,$E0
3ae1 e1 e2 e3                   DFB          $E1,$E2,$E3
3ae4 e4 29 2a                   DFB          $E4,$29,$2A
3ae7 2b e8 2c                   DFB          $2B,$E8,$2C
3aea 2d 2e 2f                   DFB          $2D,$2E,$2F
3aed 30 31 32                   DFB          $30,$31,$32
3af0 f0 f1 33                   DFB          $F0,$F1,$33
3af3 34 35 36                   DFB          $34,$35,$36
3af6 37 38 f8                   DFB          $37,$38,$F8
3af9 39 3a 3b                   DFB          $39,$3A,$3B
3afc 3c 3d 3e                   DFB          $3C,$3D,$3E
3aff 3f                         DFB          $3F
                ;;;                PAGE
                ***************************
                *                         *
                *    NYBBLE BUFFERS       *
                *                         *
                * NBUF1 (256 BYTES) MUST  *
                *  BE ALIGNED ON A PAGE   *
                *  BOUNDARY.              *
                *                         *
                * NBUF2 (86 BYTES) MUST   *
                *  BE ALIGNED ON A PAGE   *
                *  BOUNDARY.              *
                *                         *
                ***************************
                *
3b00 00 00 00   NBUF1           DS           256,0                     ;NBUF1
3b03 00 00 00
3b06 00 00 00
3b09 00 00 00
3b0c 00 00 00
3b0f 00 00 00
3b12 00 00 00
3b15 00 00 00
3b18 00 00 00
3b1b 00 00 00
3b1e 00 00 00
3b21 00 00 00
3b24 00 00 00
3b27 00 00 00
3b2a 00 00 00
3b2d 00 00 00
3b30 00 00 00
3b33 00 00 00
3b36 00 00 00
3b39 00 00 00
3b3c 00 00 00
3b3f 00 00 00
3b42 00 00 00
3b45 00 00 00
3b48 00 00 00
3b4b 00 00 00
3b4e 00 00 00
3b51 00 00 00
3b54 00 00 00
3b57 00 00 00
3b5a 00 00 00
3b5d 00 00 00
3b60 00 00 00
3b63 00 00 00
3b66 00 00 00
3b69 00 00 00
3b6c 00 00 00
3b6f 00 00 00
3b72 00 00 00
3b75 00 00 00
3b78 00 00 00
3b7b 00 00 00
3b7e 00 00 00
3b81 00 00 00
3b84 00 00 00
3b87 00 00 00
3b8a 00 00 00
3b8d 00 00 00
3b90 00 00 00
3b93 00 00 00
3b96 00 00 00
3b99 00 00 00
3b9c 00 00 00
3b9f 00 00 00
3ba2 00 00 00
3ba5 00 00 00
3ba8 00 00 00
3bab 00 00 00
3bae 00 00 00
3bb1 00 00 00
3bb4 00 00 00
3bb7 00 00 00
3bba 00 00 00
3bbd 00 00 00
3bc0 00 00 00
3bc3 00 00 00
3bc6 00 00 00
3bc9 00 00 00
3bcc 00 00 00
3bcf 00 00 00
3bd2 00 00 00
3bd5 00 00 00
3bd8 00 00 00
3bdb 00 00 00
3bde 00 00 00
3be1 00 00 00
3be4 00 00 00
3be7 00 00 00
3bea 00 00 00
3bed 00 00 00
3bf0 00 00 00
3bf3 00 00 00
3bf6 00 00 00
3bf9 00 00 00
3bfc 00 00 00
3bff 00
3c00 00 00 00   NBUF2           DS           86,0                      ;NBUF2
3c03 00 00 00
3c06 00 00 00
3c09 00 00 00
3c0c 00 00 00
3c0f 00 00 00
3c12 00 00 00
3c15 00 00 00
3c18 00 00 00
3c1b 00 00 00
3c1e 00 00 00
3c21 00 00 00
3c24 00 00 00
3c27 00 00 00
3c2a 00 00 00
3c2d 00 00 00
3c30 00 00 00
3c33 00 00 00
3c36 00 00 00
3c39 00 00 00
3c3c 00 00 00
3c3f 00 00 00
3c42 00 00 00
3c45 00 00 00
3c48 00 00 00
3c4b 00 00 00
3c4e 00 00 00
3c51 00 00 00
3c54 00 00
                
                ; ####################################################################################################
                ; #   END OF FILE:  MSWAITR
                ; #   LINES      :  202
                ; #   CHARACTERS :  7321
                ; #   Formatter  :  Assembly Language Reformatter 1.0.2 (07 January 1998)
                ; ####################################################################################################
                ; ####################################################################################################
                ; #   PROJECT  :  APPLE ][ DOS 3.3 C SOURCE CODE LISTING -- (C) APPLE COMPUTER INC. JULY 1983
                ; #   FILE NAME:  WRITADR
                ; ####################################################################################################
                
                ;;;                SBTL         '16-SECTOR WRITE ADDRESS'
                ********************************
                *                              *
                *  WRITE ADR FIELD SUBROUTINE  *
                *      (16-SECTOR FORMAT)      *
                *  WRITES SPECIFIED NUMBER OF  *
                *  40-USEC (10-BIT) SELF-SYNC  *
                *  NIBLS, ADR FIELDS 16-SECTOR *
                *  START MARKS ($D5,$AA,$96),  *
                *  BODY (VOLUME, TRACK, SECTOR,*
                *  CHECKSUM), END FIELD MARKS, *
                *  AND THE WRITE TURN-OFF NIBL.*
                *                              *
                ********************************
                *                              *
                *   ------- ON ENTRY -------   *
                *                              *
                *  THE LOCATIONS VOLUME, TRK,  *
                *  AND NSECT MUST CONTAIN THE  *
                *  DESIRED VOLUME, TRACK, AND  *
                *  SECTOR VALUES DESIRED.      *
                *                              *
                *  THE PROPER DRIVE MUST BE    *
                *  ENABLED AND UP TO SPEED IN  *
                *  READ MODE (Q7L, Q6L).       *
                *                              *
                *  X-REG CONTAINS SLOTNUM      *
                *                    TIMES 16. *
                *                              *
                *  Y-REG CONTAINS NUMBER OF    *
                *    SELF-SYNC NIBLS DESIRED   *
                *    MINUS 1.                  *
                *      (0 FOR 256 NIBLS)       *
                *                              *
                ********************************
                *                              *
                *   ------- REQUIRES -------   *
                *                              *
                *         1 USEC CYCLE         *
                *                              *
                ********************************
                *                              *
                *   ------- CAUTION --------   *
                *                              *
                *  MOST OF THIS CODE IS TIME   *
                *  CRITICAL.  OBSERVE ALL      *
                *  'NO PAGE CROSS!' WARNINGS   *
                *  ON BRANCHES.                *
                *                              *
                ********************************
                SWADR1          EQU          *                         ;TELL RELOCATOR WHERE TO BEGIN
                *******************************
3c56 38         WADR16          SEC                                    ;ANTICIPATE WR PROT ERR.
3c57 bd 8d c0                   LDA          Q6H,X                     ;INTO 'WR PROT SENSE' MODE.
3c5a bd 8e c0                   LDA          Q7L,X                     ;SENSE IT (NEG=PROTECTED)
3c5d 30 5e                      BMI          WADRTS                    ;ERR EXIT IF PROTECTED.
3c5f a9 ff                      LDA          #$FF                      ;SELF-SYNC NIBL.
3c61 9d 8f c0                   STA          Q7H,X                     ;WRITE FIRST NIBL.
3c64 dd 8c c0                   CMP          Q6L,X                     ;(4) BACK TO WRITE MODE.
3c67 48                         PHA                                    ;(3) FOR DELAY.
3c68 68                         PLA                                    ;(4)
3c69 20 c3 3c   WSYNC1          JSR          WADRTS1                   ;(12) FOR 40-USEC NIBLS.
3c6c 20 c3 3c                   JSR          WADRTS1                   ;(12)
3c6f 9d 8d c0                   STA          Q6H,X                     ;(5) WRITE NIBL.
3c72 dd 8c c0                   CMP          Q6L,X                     ;(4) (BACK TO WRITE MODE)
3c75 ea                         NOP                                    ;(2) FOR DELAY.
3c76 88                         DEY                                    ;(2) NEXT OF 'N' NIBLS.
3c77 d0 f0                      BNE          WSYNC1                    ;(3) *** NO PAGE CROSS! ***
3c79 a9 d5                      LDA          #$D5                      ;(2) ADR MARK 1.
3c7b 20 d5 3c                   JSR          WNIBLB2                   ;(15,9,6) WRITE IT.
3c7e a9 aa                      LDA          #$AA                      ;(2) ADR MARK 2.
3c80 20 d5 3c                   JSR          WNIBLB2                   ;(15,9,6) WRITE IT.
3c83 a9 96                      LDA          #$96                      ;(2) 16-SECTOR ADR MARK 3.
3c85 20 d5 3c                   JSR          WNIBLB2                   ;(15,9,6) WRITE IT.
3c88 a5 41                      LDA          NVOL                      ;(3)
3c8a 20 c4 3c                   JSR          WBYTE                     ;(14,9,6) WRITE NVOL (ODD, THEN EVEN, BITS.)
3c8d a5 44                      LDA          TRK                       ;(3) WRITE TRACK NUMBER.
3c8f 20 c4 3c                   JSR          WBYTE                     ;(14,9,6) ODD, THEN EVEN, BITS)
3c92 a5 3f                      LDA          NSECT                     ;(3) WRITE SECTOR NUMBER.
3c94 20 c4 3c                   JSR          WBYTE                     ;(14,9,6) (ODD, THEN EVEN, BITS)
3c97 a5 41                      LDA          NVOL                      ;(3)
3c99 45 44                      EOR          TRK                       ;(3) FORM ADR FIELD CHECKSUM.
3c9b 45 3f                      EOR          NSECT                     ;(3)
3c9d 48                         PHA                                    ;(3) SAVE FOR EVEN BITS.
3c9e 4a                         LSR          A                         ;(2) ALIGHN ODD BITS.
3c9f 05 3e                      ORA          AA                        ;(3) SET CLOCK BITS.
                *    (PRECISE TIMING, 32 CYCLES PER NIBL)
3ca1 9d 8d c0                   STA          Q6H,X                     ;(5) WRITE CHECKSUM ODD BITS.
3ca4 bd 8c c0                   LDA          Q6L,X                     ;(4) BACK TO WRITE MODE.
3ca7 68                         PLA                                    ;(4) RECOVER FOR EVEN BITS.
3ca8 09 aa                      ORA          #$AA                      ;(2) SET CLOCK BITS.
3caa 20 d4 3c                   JSR          WNIBLA                    ;(17,9,6) WRITE THEM.
3cad a9 de                      LDA          #$DE                      ;(2) END MARK 1.
3caf 20 d5 3c                   JSR          WNIBLB2                   ;(15,9,6) WRITE IT.
3cb2 a9 aa                      LDA          #$AA                      ;(2) END MARK 2.
3cb4 20 d5 3c                   JSR          WNIBLB2                   ;(15,9,6) WRITE IT.
3cb7 a9 eb                      LDA          #$EB                      ;(2) END MARK 3.
3cb9 20 d5 3c                   JSR          WNIBLB2                   ;(15,9,6) 'WRITE TURN-OFF'
3cbc 18                         CLC                                    ;INDICATE NO WR PROT ERR.
3cbd bd 8e c0   WADRTS          LDA          Q7L,X                     ;OUT OF WRITE MODE.
3cc0 bd 8c c0                   LDA          Q6L,X                     ;TO READ MODE.
3cc3 60         WADRTS1         RTS                                    ;RETURN
3cc4 48         WBYTE           PHA                                    ;(3) PRESERVE FOR EVEN BITS.
3cc5 4a                         LSR          A                         ;(2) ALIGN ODD BITS.
3cc6 05 3e                      ORA          AA                        ;(3) SET CLOCK BITS.
3cc8 9d 8d c0                   STA          Q6H,X                     ;(5) WRITE NIBL.
3ccb dd 8c c0                   CMP          Q6L,X                     ;(4)
3cce 68                         PLA                                    ;(4) RECOVER FOR EVEN BITS.
3ccf ea                         NOP                                    ;(2)
3cd0 ea                         NOP                                    ;(2) FOR DELAY.
3cd1 ea                         NOP                                    ;(2)
3cd2 09 aa                      ORA          #$AA                      ;(2) SET CLOCK BITS.
3cd4 ea         WNIBLA          NOP                                    ;(2) (17,9,6) ENTRY.
3cd5 ea         WNIBLB2         NOP                                    ;(2) (15,9,6) ENTRY.
3cd6 48                         PHA                                    ;(3) FOR
3cd7 68                         PLA                                    ;(4) DELAY.
3cd8 9d 8d c0   WRNIBL          STA          Q6H,X                     ;(5) WRITE NIBL.
3cdb dd 8c c0                   CMP          Q6L,X                     ;(4)
3cde 60                         RTS                                    ;(6) RETURN.
                EWADR1          EQU          *                         ;TELL RELOCTR WHERE TO STOP
                XP2             EQU          <(*+255)                  ;H.O. ADDRESS NEXT PAGE
                XP2H            EQU          256*XP2                   ;NOW AS 16-BITS
3cdf 00 00 00                   DS           XP2H-*,0                  ;PAD OUT TO PAGE BOUNDARY..
3ce2 00 00 00
3ce5 00 00 00
3ce8 00 00 00
3ceb 00 00 00
3cee 00 00 00
3cf1 00 00 00
3cf4 00 00 00
3cf7 00 00 00
3cfa 00 00 00
3cfd 00 00 00
                
                ; ####################################################################################################
                ; #   END OF FILE:  WRITADR
                ; #   LINES      :  123
                ; #   CHARACTERS :  6714
                ; #   Formatter  :  Assembly Language Reformatter 1.0.2 (07 January 1998)
                ; ####################################################################################################
                ; ####################################################################################################
                ; #   PROJECT  :  APPLE ][ DOS 3.3 C SOURCE CODE LISTING -- (C) APPLE COMPUTER INC. JULY 1983
                ; #   FILE NAME:  RWTSONE
                ; ####################################################################################################
                
                ;;;                SBTL         '16-SECTOR RWTS'
                ****************************
                *         DISK II          *
                * READ/WRITE TRACK-SECTOR  *
                *                          *
                *   COPYRIGHT 1978 BY      *
                *  APPLE COMPUTER, INC.    *
                *                          *
                *  ALL RIGHTS RESERVED     *
                *                          *
                *      R. WIGGINTON        *
                *                          *
                *  MODIFIED: 07/13/79      *
                *     R. AURICCHIO         *
                *  ADDED WAIT-SEEK WHEN    *
                *   POWERING-UP MOTOR.     *
                *                          *
                *  MODIFIED: 10/25/79      *
                *     R. AURICCHIO         *
                *  ADDED DIAGMODE DISPLAYS *
                *   FOR ACTIVITY ANALYSIS. *
                ****************************
                ASC2            EQU          *                         ;TELL RELOCTR WHERE RWTS BEGINS
                *********************************
                MOTOROFF        EQU          $C088
                MOTORON         EQU          $C089
                DRV1EN          EQU          $C08A
                DRV2EN          EQU          $C08B
                ******************************
                * STATE MACHINE CONTROLS
                * Q6   Q7   FUNCTION
                * --   --   --------
                * LO   LO   READ
                * HI   LO   SENSE WRITE PROTECT
                * LO   HI   WRITE
                * HI   HI   WRITE LOAD
                ******************************
                DRV1TRK         EQU          $478
                DRV2TRK         EQU          $4F8
                IOBPL           EQU          $48
                IOBPH           EQU          $49
                SLOT            EQU          $5F8                      ;HOLDS SLOT NUM USED
                PTRSDEST        EQU          $3C
                DEVCTBL         EQU          PTRSDEST
                DRIVNO          EQU          $35
                MONTIME         EQU          $46
                SECT            EQU          CSSTV+1
                TRACK           EQU          CSSTV+2
                VOLUME          EQU          CSSTV+3
                MAXSEEKS        EQU          4                         ;MAX FOR SEEKCNT
                SEEKCNT         EQU          $4F8                      ;# RESEEKS BEFORE RECALIBRATE
                RETRYCNT        EQU          $578
                RECALCNT        EQU          $6F8                      ;# RECALIBRATES -1
                ;;;                PAGE
                ;;;                LST          OFF
                ;;;                DO           DIAGMODE
                ;;;*
                ;;;* DIAGMODE EQUATES...
                ;;;*
                ;;;SP              EQU          $A0                       ;SPACE (INDICATOR OFF)
                ;;;TD              EQU          4                         ;DISPL BETWEEN CHARS
                ;;;TC1             EQU          $1E                       ;^ - RWTS ACTIVE
                ;;;TL1             EQU          $07D0
                ;;;TC2             EQU          $0D                       ;M - MOTOR STARTUP
                ;;;TL2             EQU          TL1+TD
                ;;;TC3             EQU          $13                       ;S - SEEK IN PROGRESS
                ;;;TL3             EQU          TL2+TD
                ;;;TC4             EQU          $01                       ;A - READING ADDRESS
                ;;;TL4             EQU          TL3+TD
                ;;;TC5             EQU          $0C                       ;L - NOT DESIRED SECTOR (LATENCY)
                ;;;TL5             EQU          TL4+1
                ;;;TC6             EQU          $05                       ;E - ADDRESS ERROR
                ;;;TL6             EQU          TL5+1
                ;;;TC7             EQU          $10                       ;P - PRENIBBILIZING
                ;;;TL7             EQU          TL4+TD
                ;;;TC8             EQU          $17                       ;W - WRITING
                ;;;TL8             EQU          TL7+TD
                ;;;TC9             EQU          $12                       ;R - READING
                ;;;TL9             EQU          TL8+TD
                ;;;TC10            EQU          $05                       ;E - READ ERROR
                ;;;TL10            EQU          TL9+TD
                ;;;TC11            EQU          $0F                       ;O - POSTNIBBLIZING
                ;;;TL11            EQU          TL10+TD
                ;;;*
                ;;;SCOUNT          EQU          $2FE                      ;SECTORS-ACCESSED COUNT
                ;;;LCOUNT          EQU          $2FF                      ;LATENCY COUNT
                ;;;TL12            EQU          TL11+TD                   ;LATENCY POSITION
                ;;;                PAGE
                ;;;                FIN
                ;;;                LST          ON
                **************************
                *                        *
                *     READ/WRITE A       *
                *   TRACK AND SECTOR     *
                *                        *
                **************************
                *                        *
                *   ENTER WITH A & Y     *
                * REGISTERS POINTING TO  *
                * THE I/O CONTROL BLOCK  *
                * (THE 'IOB'). INSIDE    *
                * THE IOB:               *
                *                        *
                * IBTYPE: IOB TYPE CODE  *
                *       (SHOULD BE A 01) *
                *                        *
                * IBSLOT: CONTROLLER SLOT*
                *       NUMBER FOR THIS  *
                *       ACCESS.          *
                *                        *
                * IBDRVN: DRIVE NUMBER   *
                *       FOR THIS ACCESS  *
                *                        *
                * IBVOL: EXPECTED VOLUME *
                *      NUMBER. NOTE THAT *
                *      VOLUME 00 MATCHES *
                *      ANY VOLUME NUMBER *
                *                        *
                * IBTRK: TRACK TO USE    *
                *      THIS ACCESS       *
                *                        *
                * IBSECT: SECTOR NUMBER  *
                *       TO USE THIS TIME *
                *                        *
                * IBDCTP: POINTER TO THE *
                *       DEVICE CHARACTER-*
                *       ISTICS TABLE.    *
                *                        *
                * IBBUFP: POINTER TO THE *
                *       PLACE THE DATA IS*
                *       OR SHOULD BE.    *
                *                        *
                * IBDLEN: AMOUNT OF DATA *
                *       IN BYTES TO BE   *
                *       PROCESSED.       *
                *                        *
                * IBCMD: COMMAND CODE:   *
                *      0-> NULL COMMAND  *
                *      1-> READ SECTOR   *
                *      2-> WRITE SECTOR  *
                *      4-> FORMAT DISK   *
                *                        *
                * IBSTAT: ERROR CODE:    *
                *      0-> NO ERROR      *
                *    $10-> WRITE PROTECT *
                *    $20-> VOLUME ERROR  *
                *    $40-> DRIVE ERROR   *
                *    $80-> READ ERROR    *
                *                        *
                * IBSMOD: LOCATION TO    *
                *       RETURN THE VOLUME*
                *       NUMBER ACTUALLY  *
                *       FOUND.           *
                *                        *
                * IOBPSN: PREVIOUS SLOT  *
                *      NUMBER USED LAST  *
                *      ACCESS.           *
                *                        *
                * IOBPDN: PREVIOUS DRIVE *
                *      NUMBER USED LAST  *
                *      ACCESS.           *
                *                        *
                **************************
                *                        *
                * DEVICE CHARACTERISTICS *
                * TABLE DESCRIPTION:     *
                *                        *
                * DEVICE TYPE CODE       *
                *  (ZERO FOR DISK II)    *
                *                        *
                * NUMBER OF PHASES PER   *
                * TRACK (TWO FOR DISK II)*
                *                        *
                * MOTOR ON TIME IN 100   *
                * MICROSECOND INTERVALS  *
                * COMPLEMENTED. ($D8EF   *
                * FOR DISK II)           *
                *                        *
                **************************
                ;;;                PAGE
3d00 84 48      RWTS            STY          IOBPL                     ;UPON ENTRY, A&Y POINT AT THE
3d02 85 49                      STA          IOBPH                     ;I/O CONTROL BLOCK (IOB)
                ;;;                LST          OFF
                ;;;                DO           DIAGMODE
                ;;;                LDY          #TC1                      ;SAY WE'RE ACTIVE
                ;;;                STY          TL1
                ;;;                FIN
                ;;;                LST          ON
3d04 a0 02                      LDY          #2                        ;SET RECALIBRATE
3d06 8c f8 06                   STY          RECALCNT                  ; COUNT
3d09 a0 04                      LDY          #MAXSEEKS                 ;SET RESEEK
3d0b 8c f8 04                   STY          SEEKCNT                   ; COUNT
3d0e a0 01                      LDY          #1                        ;GET SLOT # FOR THIS OPERATION
3d10 b1 48                      LDA          (IOBPL),Y
3d12 aa                         TAX
3d13 a0 0f                      LDY          #$0F                      ;DID HE CHANGE SLOTS?
3d15 d1 48                      CMP          (IOBPL),Y
3d17 f0 1b                      BEQ          SAMESLOT                  ;IF HE DIDN'T, GOOD FOR HIM!
                *
                * NOW ARE USING A DIFFERENT SLOT.
                * NOW WAIT FOR THIS DRIVE TO TURN OFF
                * TO SENSE MOTOR NOT SPINNING, DATA FROM DISK MUST
                * BE THE SAME FOR AT LEAST 96 MICROSECONDS
3d19 8a                         TXA                                    ;SAVE NEW SLOT #
3d1a 48                         PHA
3d1b b1 48                      LDA          (IOBPL),Y                 ;GET 'OLD SLOT NUMBER'
3d1d aa                         TAX
3d1e 68                         PLA
3d1f 48                         PHA                                    ;PUT BACK ON STACK
3d20 91 48                      STA          (IOBPL),Y                 ;SAVE 'NEW SLOT NUMBER'
3d22 bd 8e c0                   LDA          Q7L,X                     ;GO INTO READ MODE
3d25 a0 08      STILLON         LDY          #$08                      ;TO BE SURE, DATA MUST REMAIN
3d27 bd 8c c0                   LDA          Q6L,X                     ;STABLE FOR 96 MICROSECONDS
3d2a dd 8c c0   NOTSURE         CMP          Q6L,X                     ;DATA STILL CHANGING?
3d2d d0 f6                      BNE          STILLON                   ;IF SO, STILL SPINNING
3d2f 88                         DEY
3d30 d0 f8                      BNE          NOTSURE                   ;STABLE LONG ENOUGH? IF NOT, LOOP
                *
                * PREVIOUS SLOT'S DRIVE NOW OFF...
                *
3d32 68                         PLA                                    ;RESTORE NEW SLOT #
3d33 aa                         TAX
                *
                * NOW CHECK IF THE MOTOR IS ON, THEN START IT
                *
3d34 bd 8e c0   SAMESLOT        LDA          Q7L,X                     ;MAKE SURE IN READ MODE
3d37 bd 8c c0                   LDA          Q6L,X
3d3a a0 08                      LDY          #8                        ;WE MAY HAFTA CHECK SEVERAL TIMES TO BE SURE
                CHKIFON         EQU          *
3d3c bd 8c c0                   LDA          Q6L,X                     ;GET THE DATA
3d3f 48                         PHA                                    ;DELAY FOR DISK DATA TO CHANGE
3d40 68                         PLA
3d41 48                         PHA
3d42 68                         PLA
3d43 8e f8 05                   STX          SLOT
3d46 dd 8c c0                   CMP          Q6L,X                     ;CHECK RUNNING HERE
3d49 d0 03                      BNE          ITISON                    ;=>IT'S ON...
3d4b 88                         DEY                                    ;MAYBE WE DIDN'T CATCH IT
3d4c d0 ee                      BNE          CHKIFON                   ; SO WE'LL TRY AGAIN
                *
                ITISON          EQU          *
3d4e 08                         PHP                                    ;SAVE TEST RESULTS
3d4f bd 89 c0                   LDA          MOTORON,X                 ;TURN ON MOTOR REGARDLESS
3d52 a0 06                      LDY          #6                        ;MOVE OUT ALL POINTERS INTO ZPAGE
3d54 b1 48      PTRMOV          LDA          (IOBPL),Y
3d56 99 36 00                   STA          PTRSDEST-6,Y
3d59 c8                         INY
3d5a c0 0a                      CPY          #$0A                      ;MOVED ALL POINTERS?
3d5c d0 f6                      BNE          PTRMOV
3d5e a0 03                      LDY          #3                        ;SET UP THE
3d60 b1 3c                      LDA          (DEVCTBL),Y               ; MOTOR-ON TIME
3d62 85 47                      STA          MONTIME+1
3d64 a0 02                      LDY          #2                        ;NOW GET PARAMS
3d66 b1 48                      LDA          (IOBPL),Y                 ;DETERMINE DRIVE ONE OR TWO
3d68 a0 10                      LDY          #$10                      ;SAME DRIVE USED BEFORE?
3d6a d1 48                      CMP          (IOBPL),Y
3d6c f0 06                      BEQ          OK                        ;IF SO, DON'T NECESSARILY WAIT FOR MOTOR
3d6e 91 48                      STA          (IOBPL),Y                 ;NOW USING THIS DRIVE
3d70 28                         PLP                                    ;TELL HIM MOTOR WAS OFF
3d71 a0 00                      LDY          #$00                      ;SET ZERO FLAG
3d73 08                         PHP
3d74 6a         OK              ROR          A                         ;BY GOING INTO THE CARRY
3d75 90 05                      BCC          SD1                       ;SELECT DRIVE 2 !
3d77 bd 8a c0                   LDA          DRV1EN,X                  ;ASSUME DRIVE 1 TO HIT
3d7a b0 03                      BCS          DRVSEL                    ;IF WRONG, ENABLE DRIVE 2 INSTEAD
3d7c bd 8b c0   SD1             LDA          DRV2EN,X
                DRVSEL          EQU          *
3d7f 66 35                      ROR          DRIVNO                    ;SAVE SELECTED DRIVE
                *
                * DRIVE SELECTED. IF MOTORING-UP,
                *  WAIT BEFORE SEEKING...
                *
3d81 28                         PLP                                    ;WAS THE MOTOR
3d82 08                         PHP                                    ; PREVIOUSLY OFF?
3d83 d0 0b                      BNE          NOWAIT                    ;=>NO, FORGET WAITING.
3d85 a0 07                      LDY          #7                        ;YES, DELAY 150 MS
3d87 20 00 3a   SEEKW           JSR          MSWAIT
3d8a 88                         DEY
3d8b d0 fa                      BNE          SEEKW
3d8d ae f8 05                   LDX          SLOT                      ;RESTORE SLOT NUMBER
                *
                NOWAIT          EQU          *
                *
                * SEEK TO DESIRED TRACK...
                *
3d90 a0 04                      LDY          #4                        ;SET TO IOBTRK
3d92 b1 48                      LDA          (IOBPL),Y                 ;GET DESIRED TRACK
3d94 20 5a 3e                   JSR          MYSEEK                    ;SEEK!
                *
                * SEE IF MOTOR WAS ALREADY SPINNING.
                *
3d97 28                         PLP                                    ;WAS MOTOR ON?
3d98 d0 11                      BNE          TRYTRK                    ;IF SO, DON'T DELAY, GET IT TODAY!
                *
                *  WAIT FOR MOTOR SPEED TO COME UP.
                *
                ;;;                LST          OFF
                ;;;                DO           DIAGMODE
                ;;;                LDY          #TC2                      ;SAY 'MOTOR COMING ON'
                ;;;                STY          TL2
                ;;;                LDY          #0                        ;CLEAR SECTOR AND
                ;;;                STY          SCOUNT                    ; LATENCY COUNTERS
                ;;;                STY          LCOUNT
                ;;;                LDY          #SP                       ;SHUT OFF THE
                ;;;                STY          TL12                      ; LATENCY INDICATOR
                ;;;                FIN
                ;;;                LST          ON
3d9a a4 47                      LDY          MONTIME+1                 ;IF MOTORTIME IS POSITIVE,
3d9c 10 0d                      BPL          MOTORUP                   ; THEN SEEK WASTED ENUFF TIME FOR US
3d9e a0 12      MOTOF           LDY          #$12                      ;DELAY 100 USEC PER COUNT
3da0 88         CONWAIT         DEY
3da1 d0 fd                      BNE          CONWAIT
3da3 e6 46                      INC          MONTIME
3da5 d0 f7                      BNE          MOTOF
3da7 e6 47                      INC          MONTIME+1
3da9 d0 f3                      BNE          MOTOF                     ;COUNT UP TO $0000
                MOTORUP         EQU          *
                ;;;                LST          OFF
                ;;;                DO           DIAGMODE
                ;;;                LDY          #SP                       ;SAY 'MOTOR RUNNING'
                ;;;                STY          TL2
                ;;;                FIN
                ;;;                LST          ON
                
                ; ####################################################################################################
                ; #   END OF FILE:  RWTSONE
                ; #   LINES      :  323
                ; #   CHARACTERS :  12866
                ; #   Formatter  :  Assembly Language Reformatter 1.0.2 (07 January 1998)
                ; ####################################################################################################
                ; ####################################################################################################
                ; #   PROJECT  :  APPLE ][ DOS 3.3 C SOURCE CODE LISTING -- (C) APPLE COMPUTER INC. JULY 1983
                ; #   FILE NAME:  RWTSTWO
                ; ####################################################################################################
                
                *
                * DISK IS NOW UP TO SPEED: READ IT!
                * NOW CHECK: IF IT IS NOT THE FORMAT DISK COMMAND,
                *  LOCATE THE CORRECT SECTOR FOR THIS OPERATION.
                *
                TRYTRK          EQU          *
3dab a0 0c                      LDY          #$0C
3dad b1 48                      LDA          (IOBPL),Y                 ;GET COMMAND CODE #
3daf f0 5a                      BEQ          GALLDONE                  ;IF NULL COMMAND, GO HOME TO BED.
3db1 c9 04                      CMP          #$04                      ;FORMAT THE DISK?
3db3 f0 58                      BEQ          FORMDSK                   ;ALLRIGHT,ALLRIGHT, I WILL...
3db5 6a                         ROR          A                         ;SET CARRY=1 FOR READ, 0 FOR WRITE
3db6 08                         PHP                                    ;AND SAVE THAT
3db7 b0 03                      BCS          TRYTRK2                   ;MUST PRENIBBLIZE FOR WRITE.
                ;;;                LST          OFF
                ;;;                DO           DIAGMODE
                ;;;                LDY          #TC7                      ;SAY 'PRENIBBLIZING'
                ;;;                STY          TL7
                ;;;                FIN
                ;;;                LST          ON
3db9 20 00 38                   JSR          PRENIB16
                ;;;                LST          OFF
                ;;;                DO           DIAGMODE
                ;;;                LDY          #SP                       ;PRENIB FINISHED
                ;;;                STY          TL7
                ;;;                FIN
                ;;;                LST          ON
3dbc a0 30      TRYTRK2         LDY          #$30                      ;ONLY 48 RETRIES OF ANY KIND.
3dbe 8c 78 05                   STY          RETRYCNT
3dc1 ae f8 05   TRYADR          LDX          SLOT                      ;GET SLOT NUM INTO X-REG
                ;;;                LST          OFF
                ;;;                DO           DIAGMODE
                ;;;                LDA          #TC4                      ;SAY 'READING ADDRESS'
                ;;;                STA          TL4
                ;;;                LDA          #SP                       ;SAY 'NO ADDRESS ERROR' (YET)
                ;;;                STA          TL6
                ;;;                FIN
                ;;;                LST          ON
3dc4 20 44 39                   JSR          RDADR16                   ;READ NEXT ADDRESS FIELD
                ;;;                LST          OFF
                ;;;                DO           DIAGMODE
                ;;;                LDA          #SP                       ;ADDRESS-READ DONE
                ;;;                STA          TL4
                ;;;                FIN
                ;;;                LST          ON
3dc7 90 24                      BCC          RDRIGHT                   ;IF READ IT RIGHT, HURRAH!
                ;;;                LST          OFF
                ;;;                DO           DIAGMODE
                ;;;                LDA          #TC6                      ;SAY 'ADDRESS ERROR'
                ;;;                STA          TL6
                ;;;                FIN
                ;;;                LST          ON
3dc9 ce 78 05   TRYADR2         DEC          RETRYCNT                  ;ANOTHER MISTAEK!!
3dcc 10 f3                      BPL          TRYADR                    ; WELL, LET IT GO THIS TIME.,
                *
                * RRRRRECALIBRATE !!!!
                *
                RECAL           EQU          *
3dce ad 78 04                   LDA          CURTRK
3dd1 48                         PHA                                    ;SAVE TRACK WE REALLY WANT
3dd2 a9 60                      LDA          #$60                      ;RECALIBRATE ALL OVER AGAIN!
3dd4 20 95 3e                   JSR          SETTRK                    ;PRETEND TO BE ON TRACK 96
3dd7 ce f8 06                   DEC          RECALCNT                  ;ONCE TOO MANY??
3dda f0 28                      BEQ          DRVERR                    ;TRIED TO RECALIBRATE TOO MANY TIMES, ERROR!
3ddc a9 04                      LDA          #MAXSEEKS                 ;RESET THE
3dde 8d f8 04                   STA          SEEKCNT                   ; SEEK COUNTER
3de1 a9 00                      LDA          #$00
3de3 20 5a 3e                   JSR          MYSEEK                    ;MOVE TO TRACK 00
3de6 68                         PLA
3de7 20 5a 3e   RESEEK          JSR          MYSEEK                    ;GO TO CORRECT TRACK THIS TIME!
3dea 4c bc 3d                   JMP          TRYTRK2                   ;LOOP BACK, TRY AGAIN ON THIS TRACK
                *
                * HAVE NOW READ AN ADDRESS FIELD CORRECTLY.
                * MAKE SURE THIS IS THE TRACK, SECTOR, AND VOLUME DESIRED.
                *
3ded a4 2e      RDRIGHT         LDY          TRACK                     ;ON THE RIGHT TRACK?
3def cc 78 04                   CPY          CURTRK
3df2 f0 1c                      BEQ          RTTRK                     ;IF SO, GOOD
                * NO, DRIVE WAS ON A DIFFERENT TRACK. TRY
                * RESEEKING/RECALIBRATING FROM THIS TRACK
3df4 ad 78 04                   LDA          CURTRK                    ;PRESERVE DESTINATION TRACK
3df7 48                         PHA
3df8 98                         TYA
3df9 20 95 3e                   JSR          SETTRK
3dfc 68                         PLA
3dfd ce f8 04                   DEC          SEEKCNT                   ;SHOULD WE RESEEK?
3e00 d0 e5                      BNE          RESEEK                    ;=>YES, RESEEK
3e02 f0 ca                      BEQ          RECAL                     ;=>NO, RECALIBRATE!
                ***
3e04 68         DRVERR          PLA                                    ;REMOVE CURTRK.
3e05 a9 40                      LDA          #IBDERR                   ;BAD DRIVE ERROR
3e07 28         JMPTO1          PLP
3e08 4c 48 3e                   JMP          HNDLERR
3e0b f0 39      GALLDONE        BEQ          ALLDONE
3e0d 4c af 3e   FORMDSK         JMP          DSKFORM                   ;=>GO TO IT!
                *
                * DRIVE IS ON RIGHT TRACK, CHECK VOLUME MISMATCH
                *
3e10 a0 03      RTTRK           LDY          #3                        ;IS THE RIGHT DISK IN?
3e12 b1 48                      LDA          (IOBPL),Y                 ;GET DESIRED VOLUM
3e14 48                         PHA                                    ;PRESERVE DESIRED VOLUME#
3e15 a5 2f                      LDA          VOLUME                    ;GET ACTUAL VOLUME HERE
3e17 a0 0e                      LDY          #$0E                      ;TELL OPSYS WHAT VOLUME WAS THERE
3e19 91 48                      STA          (IOBPL),Y
3e1b 68                         PLA                                    ;GET DESIRED VOLUME BACK
3e1c f0 08                      BEQ          CORRECTVOL                ;DESIRED VOLUME 00 MATCHES ALL.
3e1e c5 2f                      CMP          VOLUME
3e20 f0 04                      BEQ          CORRECTVOL                ;YUP, IT WAS RIGHT
3e22 a9 20                      LDA          #IBVMME                   ;HE SWITCHED DISCS!
3e24 d0 e1                      BNE          JMPTO1                    ;ALWAYS TAKEN
                CORRECTVOL      EQU          *
3e26 a0 05                      LDY          #5                        ; TO ALLOW FOR INTERLEAVE
3e28 b1 48                      LDA          (IOBPL),Y                 ;GET REQUESTED (LOGICAL) SECTOR
3e2a a8                         TAY                                    ;MOVE TO INDEX REG
3e2b b9 b8 3f                   LDA          INTRLEAV,Y                ;COMPUTE PHYSICAL SECTOR
3e2e c5 2d                      CMP          SECT                      ;DID WE GET THE SECTOR?
                ;;;                LST          OFF
                ;;;                DO           DIAGMODE
                ;;;                BEQ          GOTSECT                   ;=>WE FOUND IT!
                ;;;                LDA          #TC5                      ;SAY 'LATENCY'
                ;;;                STA          TL5
                ;;;                LDA          SCOUNT                    ;ARE WE WAITING FOR FIRST SECTOR?
                ;;;                BEQ          NOLAT                     ;=>YES. LATENCY UNPREDICTABLE ANYWAY
                ;;;                INC          LCOUNT                    ;NO, COUNT SECTORS MISSED
                ;;;NOLAT           EQU          *
                ;;;                JMP          TRYADR2                   ;NOW..GET CORRECT SECTOR..
                ;;;                ELSE
                ;;;                LST          ON
3e30 d0 97                      BNE          TRYADR2                   ;NO, KEEP TRYING.
                ;;;                FIN
                *
                * HOORAY! WE GOT THE RIGHT SECTOR!
                *
                GOTSECT         EQU          *
                ;;;                LST          OFF
                ;;;                DO           DIAGMODE
                ;;;                LDA          #SP                       ;SAY 'NO LATENCY'
                ;;;                STA          TL5
                ;;;                INC          SCOUNT                    ;BUMP 'SECTORS-ACCESSED' COUNT
                ;;;                FIN
                ;;;                LST          ON
3e32 28                         PLP
3e33 90 1c                      BCC          WRIT                      ;CARRY WAS SET FOR READ OPERATION,
                ;;;                LST          OFF
                ;;;                DO           DIAGMODE
                ;;;                LDA          #TC9                      ;SAY 'READING'
                ;;;                STA          TL9
                ;;;                LDA          #SP                       ;SAY 'NO READ ERROR' (YET)
                ;;;                STA          TL10
                ;;;                FIN
                ;;;                LST          ON
3e35 20 dc 38                   JSR          READ16                    ;CLEARED FOR WRITE
                ;;;                LST          OFF
                ;;;                DO           DIAGMODE
                ;;;                LDA          #SP                       ;READ FINISHED
                ;;;                STA          TL9
                ;;;                FIN
                ;;;                LST          ON
3e38 08                         PHP                                    ;SAVE STATUS OF READ OPERATION
                ;;;                LST          OFF
                ;;;                DO           DIAGMODE
                ;;;                BCC          GOODREAD                  ;NO ERROR
                ;;;                LDA          #TC10                     ;SAY 'READ ERROR'
                ;;;                STA          TL10
                ;;;                JMP          TRYADR2                   ;RETRY ON ERROR
                ;;;*
                ;;;GOODREAD        EQU          *
                ;;;                ELSE
                ;;;                LST          ON
3e39 b0 8e                      BCS          TRYADR2                   ;CARRY SET UPON RETURN IF BAD READ
                ;;;                FIN
3e3b 28                         PLP                                    ;CAREFUL OF STACK
3e3c a2 00                      LDX          #0                        ;SET TO POSTNIBLIZE
3e3e 86 26                      STX          T0                        ; ALL 256 BYTES OF THE SECTOR
                ;;;                LST          OFF
                ;;;                DO           DIAGMODE
                ;;;                LDA          #TC11                     ;SAY 'POSTINIBBLIZING'
                ;;;                STA          TL11
                ;;;                FIN
                ;;;                LST          ON
3e40 20 c2 38                   JSR          POSTNB16                  ;DECODE INTO REAL WORLD DATA
                ;;;                LST          OFF
                ;;;                DO           DIAGMODE
                ;;;                LDA          #SP                       ;POSTNIB COMPLETED
                ;;;                STA          TL11
                ;;;                FIN
                ;;;                LST          ON
3e43 ae f8 05                   LDX          SLOT                      ;RESTORE SLOTNUM INTO X
3e46 18         ALLDONE         CLC
3e47 24                         DFB          $24                       ;SKIP OVER NEXT BYTE WITH BIT OPCODE
3e48 38         HNDLERR         SEC                                    ;INDICATE AN ERROR
3e49 a0 0d                      LDY          #$0D                      ;GIVE HIM ERROR#
3e4b 91 48                      STA          (IOBPL),Y
3e4d bd 88 c0                   LDA          MOTOROFF,X                ;TURN IT OFF...
                ;;;                LST          OFF
                ;;;                DO           DIAGMODE
                ;;;* AVERAGE LATENCY = LCOUNT/SCOUNT
                ;;;                LDA          LCOUNT                    ;GET TOTAL LATENCY
                ;;;                LDY          #0                        ;CLEAR QUOTIENT
                ;;;DIVIDE          EQU          *
                ;;;                CMP          SCOUNT                    ;DONE?
                ;;;                BCC          PRTLAT                    ;=>YES.PRINT IT
                ;;;                SBC          SCOUNT                    ;REMOVE SCOUNT
                ;;;                INY                                    ;INCREMENT QUOTIENT
                ;;;                BNE          DIVIDE
                ;;;*
                ;;;PRTLAT          TYA
                ;;;                AND          #$0F                      ;MAX LATENCY=15
                ;;;                ORA          #$B0                      ;MAKE ASCII
                ;;;                CMP          #$BA                      ;IS IT A-F?
                ;;;                BCC          PRTL2                     ;=>NO
                ;;;                ADC          #6                        ;ADD 7 (INCLUDES CARRY)
                ;;;PRTL2           STA          TL12                      ;STUFF LATENCY COUNT
                ;;;                LDA          #SP                       ;SAY 'RWTS NOT ACTIVE'
                ;;;                STA          TL1
                ;;;                FIN
                ;;;                LST          ON
3e50 60                         RTS
                WRIT            EQU          *
                ;;;                LST          OFF
                ;;;                DO           DIAGMODE
                ;;;                LDA          #TC8                      ;SAY 'WRITING'
                ;;;                STA          TL8
                ;;;                FIN
                ;;;                LST          ON
3e51 20 2a 38                   JSR          WRITE16                   ;WRITE NYBBLES NOW
                ;;;                LST          OFF
                ;;;                DO           DIAGMODE
                ;;;                LDA          #SP                       ;WRITE FINISHED
                ;;;                STA          TL8
                ;;;                FIN
                ;;;                LST          ON
3e54 90 f0                      BCC          ALLDONE                   ;IF NO ERRORS.
3e56 a9 10                      LDA          #IBWPER                   ;DISK IS WRITE PROTECTED!!
3e58 b0 ee                      BCS          HNDLERR                   ;ALWAYS TAKEN
                *
                * THIS IS THE 'SEEK' ROUTINE
                *  SEEKS TRACK 'N' IN SLOT #X/$10
                * IF DRIVNO IS NEGATIVE, ON DRIVE 1
                * IF DRIVNO IS POSITIVE, ON DRIVE 2
                *
3e5a 48         MYSEEK          PHA                                    ;AND PRESERVE A-REGISTER
                ;;;                LST          OFF
                ;;;                DO           DIAGMODE
                ;;;                LDA          #TC3                      ;SAY 'SEEKING'
                ;;;                STA          TL3
                ;;;                FIN
                ;;;                LST          ON
3e5b a0 01                      LDY          #$01                      ;IS THIS A TWO-PHASE DISC?
3e5d b1 3c                      LDA          (DEVCTBL),Y
3e5f 6a                         ROR          A                         ;GET # OF PHASES INTO CARRY
3e60 68                         PLA
3e61 90 08                      BCC          MYSEEK2                   ;IF ONE PHASE PER TRACK
3e63 0a                         ASL          A
3e64 20 6b 3e                   JSR          MYSEEK2
3e67 4e 78 04                   LSR          CURTRK                    ;DIVIDE BACK DOWN
                ;;;                LST          OFF
                ;;;                DO           DIAGMODE
                ;;;                LDA          #SP
                ;;;                STA          TL3                       ;SEEK DONE
                ;;;                FIN
                ;;;                LST          ON
3e6a 60                         RTS
3e6b 85 2a      MYSEEK2         STA          TRKN                      ;SAVE DESTINATION TRACK(*2)
3e6d 20 8e 3e                   JSR          XTOY                      ;SET Y=SLOT#
3e70 b9 78 04                   LDA          DRV1TRK,Y
3e73 24 35                      BIT          DRIVNO
3e75 30 03                      BMI          WASD0                     ;IS MINUS, ON DRIVE ZERO
3e77 b9 f8 04                   LDA          DRV2TRK,Y
3e7a 8d 78 04   WASD0           STA          CURTRK                    ;THIS IS WHERE I AM
3e7d a5 2a                      LDA          TRKN                      ;AND WHERE I'M GOING TO
3e7f 24 35                      BIT          DRIVNO                    ;NOW UPDATE SLOT DEPENDENT
3e81 30 05                      BMI          ISDRV1                    ;LOCATIONS WITH TRACK
3e83 99 f8 04                   STA          DRV2TRK,Y                 ;INFORMATION
3e86 10 03                      BPL          GOSEEK                    ;ALWAYS TAKEN
3e88 99 78 04   ISDRV1          STA          DRV1TRK,Y
3e8b 4c a0 39   GOSEEK          JMP          SEEK                      ;GO THERE!
3e8e 8a         XTOY            TXA
3e8f 4a                         LSR          A
3e90 4a                         LSR          A
3e91 4a                         LSR          A
3e92 4a                         LSR          A
3e93 a8                         TAY
3e94 60                         RTS
                *
                * THIS SUBROUTINE SETS THE SLOT DEPENDENT TRACK
                * LOCATION.
                *
3e95 48         SETTRK          PHA                                    ;PRESERVE DESTINATION TRACK
3e96 a0 02                      LDY          #$02
3e98 b1 48                      LDA          (IOBPL),Y
3e9a 6a                         ROR          A                         ;GET DRIVE # INTO CARRY
3e9b 66 35                      ROR          DRIVNO                    ;INTO (DRIVNO)
3e9d 20 8e 3e                   JSR          XTOY                      ;SET UP Y-REG
3ea0 68                         PLA
3ea1 0a                         ASL          A                         ;ASSUME TRACK IS HELD *2
3ea2 24 35      SETTRK2         BIT          DRIVNO
3ea4 30 05                      BMI          ONDRV1                    ;IF ON DRIVE 1(1), DRIVNO MINUS
3ea6 99 f8 04                   STA          DRV2TRK,Y
3ea9 10 03                      BPL          SETRTS
3eab 99 78 04   ONDRV1          STA          DRV1TRK,Y
3eae 60         SETRTS          RTS
                
                ; ####################################################################################################
                ; #   END OF FILE:  RWTSTWO
                ; #   LINES      :  302
                ; #   CHARACTERS :  14425
                ; #   Formatter  :  Assembly Language Reformatter 1.0.2 (07 January 1998)
                ; ####################################################################################################
                ; ####################################################################################################
                ; #   PROJECT  :  APPLE ][ DOS 3.3 C SOURCE CODE LISTING -- (C) APPLE COMPUTER INC. JULY 1983
                ; #   FILE NAME:  FORMATR
                ; ####################################################################################################
                
                ;;;                SBTL         '16-SECTOR FORMATTER'
                ****************************
                *                          *
                *  FORMAT DISK AND RETURN  *
                *                          *
                ****************************
                *
                * EQUATES FOR FORMATTER
                *
                NSYNC           EQU          $45                       ;NUM GAP SELF-SYNC NIBLS
                *
                ;;;                REP          40
                DSKFORM         EQU          *
                ;;;                DO           DIAGMODE                  ;ELIMINATE FMTR FROM DIAG ASSEMBLY
                ;;;                LST          OFF
                ;;;                ELSE
3eaf a0 03                      LDY          #3
3eb1 b1 48                      LDA          (IOBPL),Y                 ;VOLUME NUMBER IN IOB.
3eb3 85 41                      STA          NVOL                      ;FOR FORMATTER.
3eb5 a9 aa                      LDA          #$AA                      ;SET Z-PAG LOC TO $AA FOR
3eb7 85 3e                      STA          AA                        ;TIME DEPENDENT REFERENCES.
3eb9 a0 56                      LDY          #$56
3ebb a9 00                      LDA          #0
3ebd 85 44                      STA          TRK                       ;TRACK NUMBER, 0 TO 34
3ebf 99 ff 3b   CLRNBUF2        STA          NBUF2-1,Y                 ;CLEAR NBUFS TO WRITE
3ec2 88                         DEY                                    ;ZERO SECTORS.
3ec3 d0 fa                      BNE          CLRNBUF2
3ec5 99 00 3b   CLRNBUF1        STA          NBUF1,Y
3ec8 88                         DEY
3ec9 d0 fa                      BNE          CLRNBUF1
3ecb a9 50                      LDA          #$50
3ecd 20 95 3e                   JSR          SETTRK                    ;FAKE LIKE ON TRACK 80.
3ed0 a9 28                      LDA          #$28
3ed2 85 45                      STA          NSYNC                     ;BEGIN WITH 40 SELF-SYNC NIBLS.
3ed4 a5 44      FORMTRK         LDA          TRK
3ed6 20 5a 3e                   JSR          MYSEEK                    ;GOTO NEXT TRACK.
3ed9 20 0d 3f                   JSR          WTRACK16                  ;WRITE AND VERIFY TRACK.
3edc a9 08      FORMERR1        LDA          #8                        ;'UNABLE TO FORMAT' ERR CODE.
3ede b0 24                      BCS          FORMERR                   ;CONTINUE IF NO ERROR.
3ee0 a9 30                      LDA          #$30                      ;UP TO 48 SECTOR RETRIES
3ee2 8d 78 05                   STA          RETRYCNT                  ;TO FIND SECTOR 0.
3ee5 38         FINDS0          SEC                                    ;ANTICIPATE 'UNABLE TO FORMAT'
3ee6 ce 78 05                   DEC          RETRYCNT                  ;DONE 48 RETRIES?
3ee9 f0 19                      BEQ          FORMERR                   ;IF SO, 'UNABLE TO FORMAT' ERR.
3eeb 20 44 39                   JSR          RDADR16                   ;READ ADR FIELD.
3eee b0 f5                      BCS          FINDS0                    ;RETRY IF ERR.
3ef0 a5 2d                      LDA          SECT                      ;CHECK SECTOR THAT WAS READ.
3ef2 d0 f1                      BNE          FINDS0                    ;CONTINUE SEARCHING IF NOT SECT 0.
3ef4 20 dc 38                   JSR          READ16                    ;NOW READ DATA FIELD.
3ef7 b0 ec                      BCS          FINDS0                    ;CONTINUE SEARCH IF ERR.
                *       (NOW POSITIONED PROPERLY FOR NEXT TRACK)
3ef9 e6 44                      INC          TRK                       ;INCREMENT TRACK NUMBER.
3efb a5 44                      LDA          TRK
3efd c9 23                      CMP          #$23                      ;CONTINUE IF LESS THAN 35.
3eff 90 d3                      BCC          FORMTRK
3f01 18                         CLC                                    ;CLEAR CARRY TO INDICATE 'NO ERR'
3f02 90 05                      BCC          FORMDONE                  ;ELSE TURN OFF MOTOR AND RETURN.
3f04 a0 0d      FORMERR         LDY          #$0D
3f06 91 48                      STA          (IOBPL),Y                 ;RETURN ERROR CODE.
3f08 38                         SEC                                    ;SET CARRY TO INDICATE ERR.
3f09 bd 88 c0   FORMDONE        LDA          MOTOROFF,X                ;TURN MOTOR OFF.
3f0c 60                         RTS                                    ;AND RETURN.
                ;;;                PAGE
                ******************************
                *                            *
                *   WRITE TRACK SUBROUTINE   *
                *                            *
                ******************************
3f0d a9 00      WTRACK16        LDA          #0
3f0f 85 3f                      STA          NSECT                     ;SECTOR NUMBER, 0 TO 15.
3f11 a0 80                      LDY          #128                      ;128 NIBS PRIOR SECTOR 0
3f13 d0 02                      BNE          WSECT0                    ; TO INSURE NO BLANK SPOT BETW 15 & 0
3f15 a4 45      WSECT           LDY          NSYNC                     ;CURRENT NUM OF GAP SELF-SYNC NIBLS.
                WSECT0          EQU          *
3f17 20 56 3c                   JSR          WADR16                    ;WRITE GAP AND ADR FIELD.
3f1a b0 6b                      BCS          WEXIT2                    ;ERR IF WRITE PROTECTED.
3f1c 20 2a 38                   JSR          WRITE16                   ;WRITE SECTOR FROM NBUF1, NBUF2.
3f1f b0 66                      BCS          WEXIT2                    ;ERR IF WRITE PROTECTED.
3f21 e6 3f                      INC          NSECT                     ;NEXT OF 16 SECTORS.
3f23 a5 3f                      LDA          NSECT
3f25 c9 10                      CMP          #$10
3f27 90 ec                      BCC          WSECT                     ;CONTINUE IF NOT DONE.
                ;;;                PAGE
                *****************************
                *                           *
                *     VERIFY ROUTINE        *
                *                           *
                *  VERIFIES THAT THE FIRST  *
                *  SECTOR ENCOUNTERED IS    *
                *  SECTOR 0, AND THAT ALL   *
                *  16 SECTORS ARE READABLE  *
                *  WITH MINIMAL RETRIES.    *
                *  (2 REVOLUTIONS MAXIMUM)  *
                *                           *
                *  IF FIRST SECTOR IS NOT   *
                *  SECTOR 0 THEN THE        *
                *  CURRENT NUMBER OF SELF-  *
                *  SYNC NIBLS IS DECR'D BY  *
                *  1 (IF ALREADY LESS THAN  *
                *  16) OR BY 2. THEN SECTOR *
                *  15 IS LOCATED SO AS TO   *
                *  POSITION THE NEW TRACK   *
                *  REWRITE.                 *
                *                           *
                *  IF UNABLE TO READ ANY    *
                *  SECTOR THEN THE ENTIRE   *
                *  TRACK IS REWRITTEN.      *
                *                           *
                *  AFTER VERIFYING TRACK 0, *
                *  THE NUMBER OF SELF-SYNC  *
                *  NIBLS, NSYNC, IS DECR'D  *
                *  BY 2 (IF STILL 16 OR     *
                *  GREATER).                *
                *                           *
                *****************************
                ;;;                PAGE
3f29 a0 0f      VTRACK          LDY          #$F
3f2b 84 3f                      STY          NSECT                     ;SET 16 BYTES OF
3f2d a9 30                      LDA          #$30                      ;SECTOR FOUND TABLE
3f2f 8d 78 05                   STA          RETRYCNT                  ;TO $30 (MARK THEM).
3f32 99 a8 3f   CLRFOUND        STA          FOUND,Y
3f35 88                         DEY
3f36 10 fa                      BPL          CLRFOUND
3f38 a4 45                      LDY          NSYNC                     ;DELAY 50 USEC FOR EVERY
3f3a 20 87 3f   S0DELAY         JSR          WEXIT2                    ;(12)  SELF-SYNC NIBL
3f3d 20 87 3f                   JSR          WEXIT2                    ;(12)  EXPECTED TO INSURE
3f40 20 87 3f                   JSR          WEXIT2                    ;(12)  PROPER GAP PRIOR SECTOR 0.
3f43 48                         PHA                                    ;(3)
3f44 68                         PLA                                    ;(4)
3f45 ea                         NOP                                    ;(2)
3f46 88                         DEY                                    ;(2)
3f47 d0 f1                      BNE          S0DELAY                   ;(3)
3f49 20 44 39                   JSR          RDADR16                   ;READ NEXT ADDRESS FIELD.
3f4c b0 23                      BCS          S15LOC                    ;ERR, LOCATE SECT 15 AND REWRITE TRK.
3f4e a5 2d                      LDA          SECT                      ;WAS IT SECTOR 0?
3f50 f0 15                      BEQ          VDATA                     ;YES, NOW VERIFY DATA FIELD.
3f52 a9 10                      LDA          #$10
3f54 c5 45                      CMP          NSYNC                     ;DECR NSYNC BY 1 IF LESS THAN
3f56 a5 45                      LDA          NSYNC                     ;16, BY 2 IF NOT LESS.
3f58 e9 01                      SBC          #1
3f5a 85 45                      STA          NSYNC
3f5c c9 05                      CMP          #5                        ;IF LESS THAN 5, UNRECOVERABLE
3f5e b0 11                      BCS          S15LOC                    ;ERR, ELSE REWRITE AFTER DATA FLD 15.
3f60 38         VERR            SEC                                    ;DRIVE EXTREMELY FAST OR
3f61 60                         RTS                                    ;OTHER SEVERE ERROR.
3f62 20 44 39   VSECT           JSR          RDADR16                   ;READ AN ADDRESS FIELD.
3f65 b0 05                      BCS          VERR1                     ;RETRY IF ERR.
3f67 20 dc 38   VDATA           JSR          READ16                    ;READ DATA FIELD.
3f6a 90 1c                      BCC          SECTOK                    ;(GOOD)
3f6c ce 78 05   VERR1           DEC          RETRYCNT                  ;NEXT OF 48 SECTOR TRIES.
3f6f d0 f1                      BNE          VSECT                     ;(KEEP TRYING)
3f71 20 44 39   S15LOC          JSR          RDADR16                   ;READ ADDRESS FIELD.
3f74 b0 0b                      BCS          NOTS15                    ;ERR, TRY UP TO 128 TIMES.
3f76 a5 2d                      LDA          SECT                      ;SECTOR THAT WAS READ.
3f78 c9 0f                      CMP          #$F                       ;SECTOR 15?
3f7a d0 05                      BNE          NOTS15                    ;NO, CONTINUE SEARCHING.
3f7c 20 dc 38                   JSR          READ16                    ;READ DATA FIELD.
3f7f 90 8c                      BCC          WTRACK16                  ;WRITE TRACK FROM HERE IF NO ERR.
3f81 ce 78 05   NOTS15          DEC          RETRYCNT                  ;$FF TO $7F, 128 TRIES.
3f84 d0 eb                      BNE          S15LOC                    ;TRY FOR SECT 15 AGAIN.
3f86 38                         SEC                                    ;SET CARRY TO INDICATE VERIFY ERR.
3f87 60         WEXIT2          RTS                                    ;AND RETURN TO FORMATTER.
3f88 a4 2d      SECTOK          LDY          SECT                      ;THIS IS SECTOR READ.
3f8a b9 a8 3f                   LDA          FOUND,Y                   ;ALREADY FOUND?
3f8d 30 dd                      BMI          VERR1                     ;YES, IGNORE IT.
3f8f a9 ff                      LDA          #$FF
3f91 99 a8 3f                   STA          FOUND,Y                   ;INDICATE THIS SECT NOW FOUND.
3f94 c6 3f                      DEC          NSECT                     ;FOUND 16 SECTORS?
3f96 10 ca                      BPL          VSECT                     ;NO, LOOK FOR NEXT.
3f98 a5 44                      LDA          TRK
3f9a d0 0a                      BNE          WEXIT1                    ;IF TRACK 0 AND NSYNC > 16
3f9c a5 45                      LDA          NSYNC                     ;(NUM GAP SYNC NIBLS)
3f9e c9 10                      CMP          #$10                      ;THEN SUBTRACT 2 FROM NSYNC
3fa0 90 e5                      BCC          WEXIT2                    ;TO AVOID RETRIES ON LATER TRKS.
3fa2 c6 45                      DEC          NSYNC
3fa4 c6 45                      DEC          NSYNC
3fa6 18         WEXIT1          CLC                                    ;INDICATE NO ERROR.
3fa7 60                         RTS                                    ;RETURN.
                ******************************
                AEC2            EQU          *                         ;TELL RELOCTR WHERE RWTS ENDS
                ******************************
3fa8 00 00 00   FOUND           DFB          0,0,0,0                   ;'SECTOR FOUND' TABLE.
3fab 00
3fac 00 00 00                   DFB          0,0,0,0
3faf 00
3fb0 00 00 00                   DFB          0,0,0,0
3fb3 00
3fb4 00 00 00                   DFB          0,0,0,0
3fb7 00
                ;;;                FIN
                ;;;                LST          ON
                ;;;                REP          40
                * THIS TABLE IS USED TO TRANSLATE
                *  LOGICAL (REQUESTED) SECTOR NUMBER
                *  TO PHYSICAL SECTOR NUMBER. THE
                *  DISKETTE IS FORMATTED WITH ALL
                *  SECTORS IN MONOTONICALLY INCREASING
                *  ORDER. THE TRANSLATION WILL ALLOW
                *  TIME BETWEEN SECTORS FOR READS.
                *
                ;;;                REP          40
                *
                * NOTE: THE CURRENT IMPLEMENTATION OF DOS
                *  USUALLY ACCESSES SECTORS IN DECREASING
                *  ORDER ON A TRACK. THUS WE WILL
                *  TRANSLATE IN REVERSE ORDER...
                *
                * THE INTERLEAVE IS THEN 9:1
                *
                * NOTE: WE MAP LOGICAL SECTOR 0
                *  INTO PHYSICAL SECTOR 0 SO THAT
                *  WRITING OF BOOT DURING 'INIT'
                *  IS CORRECT FOR SECTOR ZERO.
                *
                INTRLEAV        EQU          *
3fb8 00 0d 0b                   DFB          $00,$0D,$0B,$09
3fbb 09
3fbc 07 05 03                   DFB          $07,$05,$03,$01
3fbf 01
3fc0 0e 0c 0a                   DFB          $0E,$0C,$0A,$08
3fc3 08
3fc4 06 04 02                   DFB          $06,$04,$02,$0F
3fc7 0f
                
                ; ####################################################################################################
                ; #   END OF FILE:  FORMATR
                ; #   LINES      :  215
                ; #   CHARACTERS :  10690
                ; #   Formatter  :  Assembly Language Reformatter 1.0.2 (07 January 1998)
                ; ####################################################################################################
                ; ####################################################################################################
                ; #   PROJECT  :  APPLE ][ DOS 3.3 C SOURCE CODE LISTING -- (C) APPLE COMPUTER INC. JULY 1983
                ; #   FILE NAME:  DOSPTCH
                ; ####################################################################################################
                
                ;;;                SBTL         "DOS PATCHES"
                ********************************
                *
                * DOS 3.2 PATCHES BY DICK HUSTON
                *
                ********************************
                * AFTER THE FACT PATCHES
                * CLRBYTE CALLED FROM DOS2 LABEL SOPTS +7 LINES
                * CLRSTS1 CALLED FROM DOS3 LABEL ERROR +2 LINES
                * ERROR9X CALLED FROM DOS5 LABEL ERROR9
                *
                *
                ;;;                REP          40
                *
                * DOS 3.3 REVISION B PATCH
                *
                ;;;                REP          40
                *****************************
                SDP1            EQU          *                         ;START OF DOS PATCHES
                RCPATCH         EQU          *
3fc8 20 93 fe                   JSR          SETVID
3fcb ad 81 c0                   LDA          $C081
3fce ad 81 c0                   LDA          $C081
3fd1 a9 00                      LDA          #0
3fd3 8d 00 e0                   STA          $E000
                ;;;                DO           DOS33B
3fd6 20 76 3a                   JSR          OFF80
3fd9 4c 44 37                   JMP          RCBACK
                ;;;                ELSE
                ;;;                JMP          RCBACK
                ;;;                DS           3,0
                ;;;                FIN
                ******************************
3fdc 8d 63 2a   CLRBYTE         STA          TEMP1A
3fdf 8d 70 2a                   STA          CB                        ;SET TYPE PARAM DEFAUTL=0
3fe2 8d 71 2a                   STA          CB+1
3fe5 60                         RTS
                ;;;                SKP          4
3fe6 20 5b 27   CLRSTS1         JSR          CLRSTS
3fe9 8c b7 2a                   STY          RSTATE                    ;PREVENTS FOREVER 'FILE NOT FOUND'
3fec 60                         RTS                                    ; IN APPLESOFT
                *****************************
3fed 20 7e 2e   ERROR9X         JSR          RTNFCB
3ff0 ae 9b 33                   LDX          ENTSTK                    ;GET STACK
3ff3 9a                         TXS                                    ;MESSY MESSY
3ff4 20 16 23                   JSR          CLALL                     ;GO CLOSE EVERYBODY
3ff7 ba                         TSX
3ff8 8e 9b 33                   STX          ENTSTK                    ;RESTORE SAVE STK
3ffb a9 09                      LDA          #9
3ffd 4c 85 33                   JMP          ERRORA                    ;AND BACK
                ******************************
                EDP1            EQU          *-1                       ;END OF DOS PATCHES FOR RELOCTR
                ENDOFDOS        EQU          *
                ;;;                DO           ENDOFDOS-$4000
                ;;;                FAIL         2,'DOS                    LENGTH NOT CORRECT'
                ;;;                FIN
                
                ; ####################################################################################################
                ; #   END OF FILE:  DOSPTCH
                ; #   LINES      :  56
                ; #   CHARACTERS :  2060
                ; #   Formatter  :  Assembly Language Reformatter 1.0.2 (07 January 1998)
                ; ####################################################################################################
